(dp0
V\u623f\u4ea7\u65b0\u95fb
p1
(dp2
V\u4e3a\u4e2d
p3
I5
sV\u4ee4\u8ba9
p4
I2
sV\u5047\u501f
p5
I2
sV\u51fa\u6765
p6
I5
sV\u7b2c\u4e8c
p7
I10
sV\u8fd8\u8981
p8
I6
sV\u4ebf\u5e73
p9
I2
sV\u6da8\u4ef7
p10
I19
sV\u5e74\u9650
p11
I3
sV\u6682\u505c
p12
I3
sV\u9006\u5883
p13
I2
sV\u5996\u9b54
p14
I3
sV\u62d6\u57ae
p15
I2
sV\u4ef7\u8131
p16
I3
sV\u4e3a\u4e3b
p17
I3
sV\u8d37\u4e0d
p18
I2
sV\u6d4b\u623f
p19
I6
sV\u6da8\u4ee4
p20
I3
sV\u662f\u8bef
p21
I3
sV\u5927\u6295
p22
I2
sV\u4ea7\u5411
p23
I2
sV\u6761\u7ec6
p24
I9
sV\u91cd\u540e
p25
I5
sV\u4e3a\u4e00
p26
I3
sV\u7eed\u6da8
p27
I3
sV\u53d1\u751f
p28
I7
sV\u5e95\u524d
p29
I3
sV\u4eba\u7fa4
p30
I4
sV\u6e2f\u697c
p31
I4
sV\u6743\u623f
p32
I15
sV\u8bd5\u6c34
p33
I3
sV\u8bba\u6218
p34
I2
sV\u5965\u8fd0
p35
I2
sV\u4eac\u6216
p36
I2
sV\u5f81\u5146
p37
I2
sV\u83ab\u8a00
p38
I2
sV\u522b\u5885
p39
I17
sV\u4e24\u5927
p40
I7
sV\u5c31\u4f1a
p41
I4
sV\u6cb3\u5317
p42
I5
sV\u54c1\u724c
p43
I7
sV\u6708\u5317
p44
I5
sV\u56f0\u5883
p45
I3
sV\u6b63\u5e38
p46
I5
sV\u671f\u6291
p47
I2
sV\u5e02\u5bd2
p48
I3
sV\u5e94\u4ee5
p49
I5
sV\u4e3a\u4e70
p50
I2
sV\u96be\u4ee5
p51
I11
sV\u5173\u7cfb
p52
I11
sV\u52bf\u5728
p53
I2
sV\u9488\u5bf9
p54
I4
sV\u5feb\u8f66
p55
I2
sV\u4e09\u7ebf
p56
I24
sV\u6807\u6746
p57
I2
sV\u5728\u7ecf
p58
I2
sV\u4e16\u7eaa
p59
I2
sV\u4ec5\u9760
p60
I3
sV\u5e94\u4ece
p61
I3
sV\u5ea6\u8c03
p62
I7
sV\u54c1\u9274
p63
I4
sV\u53d1\u5546
p64
I121
sV\u7ea6\u8c08
p65
I5
sV\u52bf\u5206
p66
I4
sV\u4eac\u697c
p67
I11
sV\u63a5\u8fd1
p68
I4
sV\u4e39\u5999
p69
I2
sV\u80c0\u53ea
p70
I2
sV\u606f\u4e0d
p71
I5
sV\u5728\u5bf9
p72
I2
sV\u5efa\u90e8
p73
I6
sV\u4f01\u8d44
p74
I5
sV\u7b2c\u4e00
p75
I10
sV\u5927\u623f
p76
I4
sV\u6761\u4ef6
p77
I3
sV\u4e2d\u4ecb
p78
I3
sV\u7b2c\u4e09
p79
I16
sV\u5b98\u5458
p80
I5
sV\u524d\u5230
p81
I4
sV\u7eb3\u7a0e
p82
I2
sV\u540e\u623f
p83
I9
sV\u7a7a\u7a74
p84
I2
sV\u6709\u5347
p85
I3
sV\u671f\u623f
p86
I5
sV\u4e4b\u9053
p87
I4
sV\u4ee4\u9700
p88
I4
sV\u8d1f\u503a
p89
I3
sV\u8ff7\u832b
p90
I3
sV\u8c0e\u8a00
p91
I7
sV\u80fd\u8ba9
p92
I4
sV\u4e3a\u4e86
p93
I6
sV\u6210\u529f
p94
I9
sV\u5546\u52fe
p95
I2
sV\u5927\u6218
p96
I4
sV\u540d\u5355
p97
I3
sVallowscriptaccess
p98
I6
sV\u5a5a\u623f
p99
I4
sV\u5df2\u65e0
p100
I4
sV\u9ad8\u623f
p101
I137
sV\u8d27\u5e01
p102
I34
sV\u60c5\u51b5
p103
I5
sV\u4ea7\u548c
p104
I2
sV\u5f97\u91cd
p105
I2
sV\u5e76\u975e
p106
I12
sV\u540d\u535a
p107
I4
sV\u9760\u5e02
p108
I4
sV\u8d77\u6b65
p109
I3
sV\u5144\u5f1f
p110
I2
sV\u540e\u626c
p111
I3
sV\u660e\u786e
p112
I2
sV\u4e94\u5e74
p113
I5
sV\u5728\u4e0d
p114
I2
sV\u6469\u5929
p115
I3
sV\u65b9\u503a
p116
I4
sV\u5176\u5fae
p117
I3
sV\u548c\u4e70
p118
I2
sV\u4ece\u623f
p119
I4
sV\u7ba1\u9884
p120
I3
sV\u964d\u5e45
p121
I3
sV\u4e2d\u4ea7
p122
I12
sV\u4eba\u4f4f
p123
I4
sV\u4e1a\u7528
p124
I2
sV\u767d\u83dc
p125
I3
sV\u65e0\u5948
p126
I4
sV\u4e3a\u4e0b
p127
I2
sV\u4e3a\u4ec0
p128
I14
sV\u5c31\u4e70
p129
I3
sV\u5730\u697c
p130
I5
sV\u9700\u65f6
p131
I3
sV\u4ea7\u54c1
p132
I14
sV\u6da8\u4e0d
p133
I10
sV\u5185\u6db5
p134
I2
sV\u6da8\u4e00
p135
I2
sV\u5411\u4e0a
p136
I3
sV\u6536\u56de
p137
I8
sV\u540e\u63a8
p138
I2
sV\u5b9e\u662f
p139
I2
sV\u76ee\u524d
p140
I34
sV\u66f4\u7ed9
p141
I3
sV\u63a7\u623f
p142
I25
sV\u64bc\u623f
p143
I3
sV\u6700\u540e
p144
I13
sV\u5468\u5317
p145
I3
sV\u79cb\u65b0
p146
I2
sV\u5927\u5e55
p147
I2
sV\u9057\u61be
p148
I2
sV\u672c\u539f
p149
I4
sV\u54cd\u623f
p150
I6
sV\u731b\u4e8e
p151
I2
sV\u5236\u623f
p152
I22
sV\u8054\u76df
p153
I13
sV\u5e02\u91cf
p154
I3
sV\u4e00\u6b21
p155
I8
sV\u63a7\u6210
p156
I4
sV\u4ea7\u751f
p157
I6
sV\u5468\u6210
p158
I2
sV\u4ef7\u800c
p159
I2
sV\u63a7\u906d
p160
I2
sV\u5b8f\u89c2
p161
I16
sV\u80cc\u79bb
p162
I2
sV\u628a\u697c
p163
I3
sV\u8868\u660e
p164
I3
sV\u63a7\u96be
p165
I4
sV\u6b63\u5f53
p166
I4
sV\u7231\u6068
p167
I2
sV\u573a\u6216
p168
I5
sVtype
p169
I6
sV\u65e5\u5b50
p170
I4
sV\u9700\u843d
p171
I2
sV\u4eba\u4eec
p172
I5
sV\u906d\u9047
p173
I8
sV\u6295\u673a
p174
I19
sV\u8d70\u70ed
p175
I3
sV\u770b\u4e2d
p176
I4
sV\u5b85\u5e02
p177
I7
sV\u5bb9\u8bb8
p178
I2
sV\u79d1\u9662
p179
I10
sV\u5f00\u5c55
p180
I2
sV\u5bf9\u5730
p181
I2
sV\u5e02\u9ad8
p182
I5
sV\u591a\u7591
p183
I2
sV\u4e70\u4e0d
p184
I12
sV\u4e3a\u4f4f
p185
I3
sV\u6b63\u5f0f
p186
I3
sV\u4ee5\u4e0b
p187
I2
sV\u4e00\u6b65
p188
I6
sV\u623f\u6295
p189
I4
sV\u5c06\u9677
p190
I2
sV\u91d1\u4e5d
p191
I41
sV\u8d8b\u4e8e
p192
I3
sV\u6709\u52a9
p193
I2
sV\u4ea7\u5546
p194
I15
sV\u4e3b\u8981
p195
I6
sV\u518d\u6210
p196
I8
sV\u8d44\u6027
p197
I3
sV\u4e3a\u4f55
p198
I35
sV\u7b56\u51fa
p199
I4
sV\u9996\u6279
p200
I2
sV\u7686\u6d6e
p201
I2
sV\u660e\u5929
p202
I4
sV\u7c7b\u623f
p203
I4
sV\u654c\u516b
p204
I2
sV\u56de\u6696
p205
I37
sV\u623f\u826f
p206
I3
sV\u9996\u4ed8
p207
I3
sV\u80fd\u8fce
p208
I2
sV\u7231\u60c5
p209
I3
sV\u4eba\u4e3a
p210
I4
sV\u672a\u6765
p211
I47
sV\u4ee5\u4ef7
p212
I5
sV\u5fb7\u56fd
p213
I2
sV\u51af\u4ed1
p214
I26
sV\u603b\u4f53
p215
I4
sV\u4eba\u4e0d
p216
I4
sV\u5728\u9ad8
p217
I3
sV\u5e73\u7a33
p218
I11
sV\u65e5\u4ff1
p219
I2
sV\u66f4\u5e74
p220
I5
sV\u878d\u98ce
p221
I3
sV\u53f0\u6e7e
p222
I3
sV\u662f\u7ecf
p223
I3
sV\u5e95\u53cd
p224
I2
sV\u6539\u53d8
p225
I20
sV\u623f\u624d
p226
I3
sV\u56fd\u8001
p227
I4
sV\u8bbe\u4e0d
p228
I3
sV\u7a0e\u8d1f
p229
I4
sV\u6619\u82b1
p230
I5
sV\u8ba9\u5f00
p231
I2
sV\u793a\u623f
p232
I2
sV\u91d1\u4e8c
p233
I2
sV\u5c45\u4f4f
p234
I7
sV\u5e74\u4f4f
p235
I4
sV\u5e02\u4e25
p236
I3
sV\u80c0\u538b
p237
I4
sV\u71d5\u90ca
p238
I2
sV\u82b1\u4e00
p239
I5
sV\u4f4f\u5efa
p240
I6
sV\u90e8\u516c
p241
I2
sV\u7b80\u5355
p242
I5
sV\u738b\u603b
p243
I2
sV\u5bf9\u4e0d
p244
I4
sV\u4eba\u4e70
p245
I5
sV\u5357\u5899
p246
I2
sV\u9650\u5b57
p247
I2
sV\u5c06\u8d70
p248
I5
sV\u5e94\u4f5c
p249
I2
sV\u4e0d\u7406
p250
I2
sV\u9519\u8bef
p251
I7
sV\u4eba\u8ffd
p252
I2
sV\u793e\u79d1
p253
I10
sV\u83ab\u8ba9
p254
I2
sV\u5c55\u4f1a
p255
I3
sV\u4f5c\u5efa
p256
I2
sV\u4e0d\u5408
p257
I4
sV\u6e38\u8d44
p258
I3
sV\u623f\u6210
p259
I19
sV\u6709\u5229
p260
I8
sV\u6709\u522b
p261
I2
sV\u683c\u5c40
p262
I8
sV\u7b8d\u5492
p263
I3
sV\u9000\u51fa
p264
I10
sV\u7b11\u8c08
p265
I3
sV\u53d7\u963b
p266
I2
sV\u4ea7\u9636
p267
I7
sV\u5730\u89c4
p268
I2
sV\u91d1\u8d37
p269
I6
sV\u5f3a\u5927
p270
I2
sV\u901a\u5dde
p271
I5
sV\u9760\u8c31
p272
I13
sV\u9996\u5957
p273
I9
sV\u7ecf\u5f00
p274
I3
sV\u7f3a\u5931
p275
I5
sV\u63a8\u9ad8
p276
I18
sV\u8ba4\u8bc6
p277
I3
sV\u662f\u89e3
p278
I4
sV\u8d2d\u662f
p279
I5
sV\u4e0b\u964d
p280
I38
sV\u4e3a\u8c03
p281
I3
sV\u4ea7\u8fc7
p282
I3
sV\u5730\u8ba1
p283
I2
sV\u4e00\u6837
p284
I5
sV\u96ea\u4e0a
p285
I3
sV\u6709\u51e0
p286
I3
sV\u95f2\u7f6e
p287
I12
sV\u4e00\u6839
p288
I3
sV\u524d\u4ec0
p289
I2
sV\u7a81\u56f4
p290
I7
sV\u91c7\u53d6
p291
I2
sV\u5e9c\u5e94
p292
I6
sV\u8c03\u620f
p293
I3
sV\u51ed\u4ec0
p294
I4
sV\u6539\u9020
p295
I9
sV\u7528\u5730
p296
I15
sV\u90fd\u5e02
p297
I4
sV\u662f\u8981
p298
I5
sV\u5e74\u540e
p299
I6
sV\u8a00\u8bba
p300
I3
sV\u5e74\u540c
p301
I2
sV\u80fd\u89e3
p302
I5
sV\u624d\u80fd
p303
I9
sV\u5389\u8c03
p304
I4
sV\u57fa\u5730
p305
I3
sV\u4ea7\u518d
p306
I3
sV\u83dc\u4ef7
p307
I3
sV\u4e2a\u539f
p308
I3
sV\u5f00\u5f66
p309
I2
sV\u662f\u8ba9
p310
I3
sV\u5a92\u4f53
p311
I6
sV\u963b\u529b
p312
I4
sV\u8d70\u7740
p313
I2
sV\u653f\u6291
p314
I2
sV\u89c4\u6a21
p315
I4
sV\u91d1\u6d41
p316
I3
sV\u72af\u4e86
p317
I2
sV\u8c03\u623f
p318
I4
sV\u5927\u6709
p319
I2
sV\u571f\u90e8
p320
I11
sV\u5ea6\u4e0a
p321
I2
sV\u6216\u4f7f
p322
I3
sV\u5ea6\u4e0d
p323
I3
sV\u4e25\u6253
p324
I2
sV\u4ef7\u63a7
p325
I3
sV\u5148\u751f
p326
I3
sV\u4e3b\u9898
p327
I5
sV\u4e0d\u9760
p328
I8
sV\u6d2a\u767b
p329
I4
sV\u521b\u4e1a
p330
I3
sV\u4ef7\u63a8
p331
I3
sV\u7a0e\u4e3a
p332
I4
sV\u56e0\u4e3a
p333
I4
sV\u65b0\u578b
p334
I5
sV\u5c06\u4e0a
p335
I4
sV\u73af\u6bd4
p336
I9
sV\u5c45\u6c11
p337
I9
sV\u5c06\u4e0d
p338
I3
sV\u5b58\u91cf
p339
I3
sV\u53bf\u57df
p340
I3
sV\u5b50\u5f53
p341
I2
sV\u4e09\u7c7b
p342
I4
sV\u5e02\u5927
p343
I8
sV\u7a0e\u4e0d
p344
I13
sV\u9999\u6e2f
p345
I14
sV\u9ad8\u6863
p346
I3
sV\u5546\u90fd
p347
I2
sV\u57ce\u9547
p348
I21
sV\u5927\u63a8
p349
I2
sV\u662f\u697c
p350
I21
sV\u653f\u624b
p351
I3
sV\u5e02\u5931
p352
I2
sV\u8d1f\u5229
p353
I5
sV\u90e8\u5206
p354
I4
sV\u7fa4\u4f53
p355
I4
sV\u5b85\u65f6
p356
I2
sV\u4fdd\u5229
p357
I2
sV\u53d8\u4f4f
p358
I2
sV\u592e\u7ecf
p359
I4
sV\u8c03\u8282
p360
I4
sV\u5b50\u5f39
p361
I5
sV\u4e1a\u9700
p362
I3
sV\u4e0d\u5728
p363
I5
sV\u6210\u90fd
p364
I2
sV\u5b66\u4e60
p365
I4
sV\u8282\u697c
p366
I3
sV\u66b4\u8dcc
p367
I12
sV\u5236\u76ee
p368
I3
sV\u5171\u8bc6
p369
I3
sV\u8d8b\u6d3b
p370
I2
sV\u4ea7\u64cd
p371
I2
sV\u51fa\u65b0
p372
I4
sV\u8981\u589e
p373
I2
sV\u5c40\u623f
p374
I3
sV\u5b9e\u65bd
p375
I3
sV\u72c2\u6b22
p376
I8
sV\u653f\u6216
p377
I3
sV\u6b66\u6797
p378
I3
sV\u5165\u623f
p379
I2
sV\u671b\u697c
p380
I3
sV\u623f\u610f
p381
I3
sV\u81ea\u6740
p382
I2
sV\u65e0\u7b56
p383
I2
sV\u8fde\u7eed
p384
I3
sV\u91cd\u56de
p385
I5
sV\u4e1a\u5730
p386
I68
sV\u6216\u5f15
p387
I2
sV\u5e02\u9884
p388
I7
sV\u793a\u4e2d
p389
I3
sV\u623f\u80fd
p390
I3
sV\u6c11\u65f6
p391
I2
sV\u6211\u5bf9
p392
I2
sV\u4ecd\u662f
p393
I4
sV\u6001\u5316
p394
I3
sV\u9700\u4e3b
p395
I2
sV\u5761\u8def
p396
I3
sV\u4f11\u77e3
p397
I2
sV\u51b3\u9ad8
p398
I3
sV\u6c11\u65e5
p399
I2
sV\u4ef7\u623f
p400
I8
sV\u624b\u623f
p401
I59
sV\u65e0\u5927
p402
I2
sV\u8d41\u7ba1
p403
I3
sV\u9002\u5ea6
p404
I3
sV\u53f3\u623f
p405
I2
sV\u56de\u843d
p406
I9
sV\u4ea7\u771f
p407
I3
sV\u5f15\u53d1
p408
I12
sV\u4ef7\u6216
p409
I16
sV\u529f\u592b
p410
I2
sV\u6da8\u8dcc
p411
I8
sV\u4ea7\u9700
p412
I5
sV\u60b2\u50ac
p413
I2
sV\u6216\u81f4
p414
I4
sV\u63a7\u800c
p415
I2
sV\u76d8\u4e00
p416
I2
sV\u5347\u6e29
p417
I3
sV\u5185\u4e0d
p418
I3
sV\u65b0\u9650
p419
I2
sV\u548c\u4e2d
p420
I2
sV\u5c06\u8fdb
p421
I8
sV\u5c06\u4fdd
p422
I3
sV\u6548\u5e94
p423
I17
sV\u5c0f\u623f
p424
I4
sV\u725b\u5e02
p425
I3
sV\u6839\u7a3b
p426
I3
sV\u5c06\u4fc3
p427
I4
sV\u6295\u8d44
p428
I81
sV\u5c0f\u6237
p429
I15
sV\u53cd\u8bc1
p430
I2
sV\u8001\u864e
p431
I6
sV\u5c06\u8fce
p432
I12
sV\u7b56\u7565
p433
I4
sV\u6709\u70b9
p434
I3
sV\u662f\u88ab
p435
I4
sV\u662f\u68a6
p436
I5
sV\u673a\u9047
p437
I6
sV\u6cab\u662f
p438
I2
sV\u65e8\u5728
p439
I4
sV\u4ee5\u8c03
p440
I2
sV\u65e0\u529f
p441
I2
sV\u4ef7\u6253
p442
I3
sV\u8bed\u5f55
p443
I2
sV\u8ba9\u4e2d
p444
I3
sV\u5df2\u662f
p445
I6
sV\u4ea4\u901a
p446
I2
sV\u4e00\u697c
p447
I4
sV\u6291\u540e
p448
I3
sV\u989d\u5916
p449
I3
sV\u5b9a\u53c8
p450
I2
sV\u53d8\u4e0d
p451
I3
sV\u8d70\u8fdb
p452
I6
sV\u56fd\u623f
p453
I99
sV\u767e\u5e74
p454
I4
sV\u53cd\u6da8
p455
I2
sV\u7eed\u4e0b
p456
I3
sV\u7eed\u4e0a
p457
I8
sV\u9884\u671f
p458
I42
sV\u8d70\u8fc7
p459
I2
sV\u8fb9\u8d70
p460
I7
sV\u88ab\u9ad8
p461
I3
sV\u6342\u76d8
p462
I5
sV\u6e90\u5728
p463
I2
sV\u6ca1\u623f
p464
I2
sV\u7a0e\u77ed
p465
I2
sV\u4e0d\u6015
p466
I2
sV\u80a1\u5e02
p467
I6
sV\u6d4e\u5bcc
p468
I3
sV\u4e0d\u964d
p469
I6
sV\u610f\u8bc6
p470
I2
sV\u5b66\u4f1a
p471
I3
sV\u4ea7\u591a
p472
I2
sV\u5b81\u53ef
p473
I2
sV\u53d8\u4e3a
p474
I3
sV\u535e\u6d2a
p475
I4
sV\u5730\u6a21
p476
I2
sV\u5f62\u6210
p477
I5
sV\u4e0d\u9650
p478
I3
sV\u770b\u6cd5
p479
I3
sV\u6240\u8d8b
p480
I3
sV\u4ea4\u4f1a
p481
I4
sV\u4e3a\u63a7
p482
I2
sV\u4eba\u6c11
p483
I19
sV\u4ef7\u6298
p484
I3
sV\u5fc6\u6211
p485
I2
sV\u4ef7\u82e5
p486
I3
sV\u6da8\u6d3e
p487
I2
sV\u552f\u6709
p488
I2
sV\u751f\u5b58
p489
I4
sV\u5f53\u65f6
p490
I4
sV\u95f9\u5267
p491
I2
sV\u89c4\u8303
p492
I3
sV\u770b\u6291
p493
I2
sV\u4e24\u79cd
p494
I3
sV\u4eac\u7248
p495
I4
sV\u6210\u4e3a
p496
I35
sV\u65e7\u662f
p497
I3
sV\u8d22\u653f
p498
I18
sV\u538b\u623f
p499
I9
sV\u5883\u5916
p500
I3
sV\u91cf\u6709
p501
I2
sV\u9752\u6625
p502
I3
sV\u8d70\u8fb9
p503
I7
sV\u8c03\u63a7
p504
I682
sV\u65b0\u56fd
p505
I13
sV\u54ea\u91cc
p506
I4
sV\u8bed\u4e2d
p507
I2
sV\u571f\u516b
p508
I6
sV\u5931\u63a7
p509
I7
sV\u578b\u4e1a
p510
I2
sV\u623f\u8005
p511
I25
sV\u63a7\u80cc
p512
I2
sV\u5c06\u8f6c
p513
I4
sV\u5341\u697c
p514
I4
sV\u4e07\u5957
p515
I5
sV\u5f53\u623f
p516
I2
sV\u5200\u5207
p517
I3
sV\u5230\u5e95
p518
I7
sV\u9489\u5b50
p519
I3
sV\u5bcc\u8c6a
p520
I2
sV\u5341\u4e8c
p521
I5
sV\u62ff\u5730
p522
I10
sV\u52a9\u6da8
p523
I6
sV\u4e2a\u95ee
p524
I3
sV\u5e74\u524d
p525
I5
sV\u781d\u7801
p526
I2
sV\u5177\u6709
p527
I4
sV\u601d\u8003
p528
I15
sV\u8bbe\u8ba1
p529
I18
sV\u5546\u964d
p530
I7
sV\u4e0d\u51fa
p531
I4
sV\u6211\u89c1
p532
I3
sV\u4e8b\u4e4b
p533
I2
sV\u6e10\u6210
p534
I3
sV\u4eac\u6d25
p535
I3
sV\u5468\u671f
p536
I11
sV\u5dde\u623f
p537
I6
sV\u4e00\u4e2a
p538
I40
sV\u4e0d\u51cf
p539
I3
sV\u767e\u59d3
p540
I27
sV\u4e4b\u610f
p541
I2
sV\u5e95\u9650
p542
I2
sV\u672b\u73ed
p543
I2
sV\u5929\u4e0b
p544
I4
sV\u5e94\u4e0d
p545
I3
sV\u5730\u4f9b
p546
I11
sV\u91cf\u589e
p547
I2
sV\u5c06\u88ab
p548
I3
sV\u5728\u5f3a
p549
I2
sV\u5c31\u4e0d
p550
I3
sV\u5f3a\u662f
p551
I3
sV\u957f\u65f6
p552
I3
sV\u65ec\u4e8c
p553
I4
sV\u5176\u8eab
p554
I3
sV\u79d8\u5bc6
p555
I4
sV\u793a\u697c
p556
I4
sV\u4f4f\u5f97
p557
I4
sV\u5ba2\u6237
p558
I5
sV\u5883\u754c
p559
I3
sV\u6df7\u4e71
p560
I5
sV\u59dc\u4ec1
p561
I2
sV\u4eba\u8bf4
p562
I4
sV\u5065\u5eb7
p563
I6
sV\u4e03\u6210
p564
I4
sV\u4f18\u5316
p565
I7
sV\u4ef7\u81f3
p566
I2
sV\u7406\u5ff5
p567
I3
sV\u81ea\u4f5c
p568
I2
sV\u80e1\u8a00
p569
I3
sV\u7406\u60f3
p570
I7
sV\u6c11\u6295
p571
I2
sV\u5584\u6210
p572
I2
sV\u8dcc\u4e00
p573
I3
sV\u771f\u76f8
p574
I11
sV\u4e0d\u518d
p575
I11
sV\u5728\u9f13
p576
I2
sV\u5229\u7a7a
p577
I2
sV\u8dcc\u4e0d
p578
I8
sV\u8dcc\u4e0b
p579
I2
sV\u81ea\u4f4f
p580
I10
sV\u540e\u6216
p581
I2
sV\u91cd\u9053
p582
I4
sV\u5bcc\u6c11
p583
I2
sV\u8001\u767e
p584
I5
sV\u91d1\u4e09
p585
I2
sV\u89c2\u70b9
p586
I2
sV\u56de\u4e61
p587
I2
sV\u662f\u4f4f
p588
I3
sV\u4f1a\u964d
p589
I4
sV\u52c7\u6c14
p590
I2
sV\u5e02\u5f00
p591
I6
sV\u4f1f\u4e1a
p592
I4
sV\u4e07\u79d1
p593
I22
sV\u5728\u5ffd
p594
I2
sV\u6bb5\u8c03
p595
I2
sV\u7ec8\u7ed3
p596
I6
sV\u624d\u662f
p597
I16
sV\u4ef7\u5730
p598
I3
sV\u73b0\u5b9e
p599
I11
sV\u4e00\u4e8c
p600
I3
sV\u5b66\u6821
p601
I4
sV\u56f0\u5c40
p602
I5
sV\u573a\u53ef
p603
I2
sV\u5e02\u571f
p604
I3
sV\u9636\u6bb5
p605
I17
sV\u4ef7\u65b0
p606
I3
sV\u4e00\u4e9b
p607
I4
sV\u91cd\u70b9
p608
I2
sV\u72b6\u6001
p609
I3
sV\u7ecf\u4e0d
p610
I3
sV\u6761\u51fa
p611
I3
sV\u4f4f\u5b85
p612
I52
sV\u5165\u5341
p613
I2
sV\u8fd8\u5f97
p614
I3
sV\u6253\u538b
p615
I12
sV\u662f\u798f
p616
I3
sV\u5c31\u8be5
p617
I2
sV\u8521\u9e3f
p618
I3
sV\u7406\u6027
p619
I15
sV\u96be\u8a00
p620
I3
sV\u5973\u6027
p621
I3
sV\u57fa\u91d1
p622
I5
sV\u5728\u5fc5
p623
I2
sV\u671f\u4e0d
p624
I3
sV\u614c\u6027
p625
I3
sV\u624b\u65e0
p626
I2
sV\u8d8a\u9ad8
p627
I3
sV\u5bc6\u5ea6
p628
I2
sV\u6709\u771f
p629
I4
sV\u5168\u56fd
p630
I28
sV\u5f00\u59cb
p631
I23
sV\u80fd\u4f7f
p632
I2
sV\u5929\u4ef7
p633
I3
sV\u529b\u4fc3
p634
I3
sV\u4ee4\u4f7f
p635
I2
sV\u5fae\u535a
p636
I12
sV\u51b3\u4e8e
p637
I8
sV\u5730\u800c
p638
I2
sV\u4e89\u53d6
p639
I2
sV\u4ea7\u70ed
p640
I2
sV\u9500\u5927
p641
I2
sV\u4e00\u4ee3
p642
I3
sV\u5ea6\u770b
p643
I2
sV\u5bb9\u4e0d
p644
I2
sV\u8d37\u5e02
p645
I4
sV\u533a\u522b
p646
I2
sV\u6709\u5730
p647
I2
sV\u7ed3\u679c
p648
I2
sV\u5728\u5236
p649
I2
sV\u5546\u96be
p650
I2
sV\u5fc5\u80fd
p651
I2
sV\u4e00\u4ef7
p652
I8
sV\u623f\u6709
p653
I4
sV\u7f6e\u623f
p654
I4
sV\u65b9\u5411
p655
I13
sV\u7eed\u697c
p656
I2
sV\u5fd7\u5f3a
p657
I39
sV\u9633\u6625
p658
I4
sV\u5e9c\u8c03
p659
I4
sV\u6539\u9769
p660
I21
sV\u591a\u91cd
p661
I3
sV\u8d25\u662f
p662
I3
sV\u4e4b\u6025
p663
I4
sV\u603b\u91cf
p664
I2
sV\u80cc\u666f
p665
I5
sV\u9ed4\u9a74
p666
I2
sV\u80fd\u6b62
p667
I2
sV\u5ea6\u697c
p668
I5
sVheight
p669
I6
sV\u5e02\u5e94
p670
I4
sV\u52a0\u5f3a
p671
I3
sV\u4e25\u653f
p672
I2
sV\u4f9b\u9700
p673
I8
sV\u4ee4\u4eba
p674
I2
sV\u4e70\u697c
p675
I3
sV\u4eac\u79df
p676
I3
sV\u63a7\u662f
p677
I19
sV\u5931\u6548
p678
I4
sV\u5bc2\u5bde
p679
I4
sV\u5e86\u623f
p680
I2
sV\u529b\u4e0e
p681
I3
sV\u6cb9\u4ef7
p682
I3
sV\u653f\u65e0
p683
I2
sV\u4f9b\u5730
p684
I4
sV\u65b0\u4e94
p685
I4
sV\u5c42\u9762
p686
I4
sV\u51fa\u624b
p687
I5
sV\u534a\u5e74
p688
I32
sV\u4e0d\u6539
p689
I3
sV\u81ea\u4e2d
p690
I2
sV\u4f53\u5316
p691
I3
sV\u540e\u679c
p692
I8
sV\u83ab\u8f7b
p693
I2
sV\u65e5\u7f51
p694
I2
sV\u6700\u503c
p695
I2
sV\u8c03\u6574
p696
I25
sV\u8bf1\u60d1
p697
I3
sV\u641e\u5b9a
p698
I5
sV\u52df\u57fa
p699
I2
sV\u6291\u5236
p700
I19
sV\u7814\u7a76
p701
I4
sV\u5e74\u5317
p702
I3
sV\u518d\u662f
p703
I4
sV\u7f3a\u4e4f
p704
I4
sV\u7591\u4f3c
p705
I4
sV\u6574\u662f
p706
I4
sV\u4e00\u4f53
p707
I5
sV\u51fa\u623f
p708
I8
sV\u5e02\u7ed3
p709
I4
sV\u5168\u9762
p710
I12
sV\u52a0\u623f
p711
I2
sV\u5e94\u8be5
p712
I31
sV\u53f2\u4e0a
p713
I7
sV\u8427\u96e8
p714
I2
sV\u662f\u51b3
p715
I2
sV\u5e02\u7ee7
p716
I3
sV\u4e0a\u52a0
p717
I2
sV\u5e86\u5178
p718
I2
sV\u552c\u4eba
p719
I2
sV\u4e00\u8f6e
p720
I28
sV\u6761\u7406
p721
I2
sV\u80fd\u4ec5
p722
I2
sV\u7ecf\u8fdb
p723
I2
sV\u5fd7\u7eb2
p724
I8
sV\u5c06\u89e6
p725
I2
sV\u751f\u5de8
p726
I2
sV\u90fd\u7ecf
p727
I4
sV\u7a7a\u7f6e
p728
I17
sV\u4ee3\u8868
p729
I2
sV\u671f\u671b
p730
I3
sV\u6709\u9650
p731
I10
sV\u8b66\u793a
p732
I9
sV\u4f53\u73b0
p733
I5
sV\u7fc5\u8180
p734
I2
sV\u4e09\u5b57
p735
I3
sV\u4ee5\u5f80
p736
I3
sV\u5730\u8c03
p737
I4
sV\u5e74\u53cd
p738
I3
sV\u6709\u964d
p739
I4
sV\u5f31\u52bf
p740
I2
sV\u8981\u56de
p741
I2
sV\u53d6\u5f97
p742
I4
sV\u97e9\u4ee4
p743
I2
sV\u540e\u6709
p744
I3
sV\u5728\u7ed9
p745
I3
sV\u4ee4\u4e0b
p746
I5
sV\u9762\u8c03
p747
I3
sV\u4eac\u6caa
p748
I2
sV\u76df\u4e2d
p749
I3
sV\u571f\u5730
p750
I115
sV\u4e3b\u6d41
p751
I6
sV\u80fd\u4e00
p752
I5
sV\u5229\u4e8e
p753
I5
sV\u80fd\u4e0d
p754
I3
sV\u6751\u5708
p755
I2
sV\u4e09\u5b63
p756
I8
sV\u671b\u4e2d
p757
I4
sV\u662f\u4e0d
p758
I8
sV\u6d4e\u589e
p759
I6
sV\u5176\u4f26
p760
I3
sV\u7a0e\u6709
p761
I2
sV\u6da6\u7387
p762
I2
sV\u6551\u697c
p763
I4
sV\u662f\u4e00
p764
I58
sV\u623f\u662f
p765
I18
sV\u5fbd\u6e56
p766
I2
sV\u7a0b\u4e2d
p767
I3
sV\u9662\u697c
p768
I2
sV\u5728\u7ea0
p769
I3
sV\u623f\u65b0
p770
I7
sV\u52a8\u6027
p771
I3
sV\u662f\u4e2d
p772
I12
sV\u4f1a\u5728
p773
I6
sV\u662f\u4e2a
p774
I19
sV\u91cd\u91cd
p775
I4
sV\u7b56\u5c06
p776
I2
sV\u6c34\u5e73
p777
I5
sV\u516b\u767e
p778
I3
sV\u8c6a\u8d4c
p779
I2
sV\u7a0e\u6700
p780
I2
sV\u5e02\u5e76
p781
I3
sV\u662f\u4e3b
p782
I5
sV\u662f\u4e3a
p783
I7
sV\u5b69\u5b50
p784
I6
sV\u4e2a\u7406
p785
I3
sV\u64cd\u76d8
p786
I2
sV\u5e01\u653f
p787
I17
sV\u4e0d\u901a
p788
I2
sV\u4ea7\u5236
p789
I2
sV\u7efc\u63f4
p790
I2
sV\u6b63\u786e
p791
I3
sV\u9ad8\u538b
p792
I3
sV\u63a7\u653f
p793
I39
sV\u623f\u65f6
p794
I8
sV\u4e0d\u53ef
p795
I32
sV\u5f85\u5546
p796
I3
sV\u6ca1\u90a3
p797
I3
sV\u4ea7\u6700
p798
I3
sV\u573a\u653f
p799
I2
sV\u5ffd\u60a0
p800
I8
sV\u7b49\u4e8e
p801
I9
sV\u80fd\u6da8
p802
I2
sV\u770b\u697c
p803
I2
sVwmode
p804
I6
sV\u5b9a\u5668
p805
I2
sV\u516c\u6b63
p806
I3
sV\u610f\u4e49
p807
I13
sV\u4ef7\u6700
p808
I7
sV\u4e0d\u5927
p809
I6
sV\u5317\u4eac
p810
I104
sV\u7b11\u8bdd
p811
I2
sV\u4eba\u8981
p812
I3
sV\u4ef7\u6709
p813
I9
sV\u4e86\u623f
p814
I21
sV\u963b\u51fb
p815
I2
sV\u662f\u9ed1
p816
I2
sV\u5bf9\u901a
p817
I2
sV\u8001\u4e0d
p818
I2
sV\u5168\u7403
p819
I5
sV\u8c2c\u8bba
p820
I4
sV\u4e0d\u53d8
p821
I4
sV\u653f\u8bef
p822
I2
sV\u7ed3\u6784
p823
I13
sV\u5165\u51ac
p824
I5
sV\u5730\u8fd0
p825
I3
sV\u5434\u5176
p826
I3
sV\u4ef7\u65e0
p827
I6
sV\u91ce\u5ba2
p828
I2
sV\u6696\u4e0d
p829
I3
sV\u5f81\u7a0e
p830
I5
sV\u4e0d\u73b0
p831
I3
sV\u8fd8\u8fdc
p832
I2
sV\u529b\u8d44
p833
I3
sV\u5e86\u7248
p834
I4
sV\u4ef7\u677e
p835
I3
sV\u5165\u51b0
p836
I2
sV\u5165\u51b3
p837
I2
sV\u6cbb\u672c
p838
I6
sV\u610f\u4e0d
p839
I2
sV\u6536\u573a
p840
I2
sV\u8c03\u662f
p841
I3
sV\u9760\u884c
p842
I2
sV\u91d1\u548c
p843
I2
sV\u5f97\u8d77
p844
I4
sV\u4eac\u7f6e
p845
I2
sV\u573a\u623f
p846
I2
sV\u5e02\u5df2
p847
I5
sV\u800c\u975e
p848
I3
sV\u8fc1\u96be
p849
I2
sV\u63a7\u6548
p850
I7
sV\u5e45\u4e0d
p851
I3
sV\u53d1\u73b0
p852
I3
sV\u8d41\u5e02
p853
I5
sV\u63a7\u65b0
p854
I8
sV\u8d85\u8fc7
p855
I3
sV\u662f\u8d44
p856
I4
sV\u4e1a\u5341
p857
I2
sV\u63a7\u65b9
p858
I4
sV\u4e61\u7f6e
p859
I3
sV\u8fd8\u4f1a
p860
I7
sV\u6807\u51c6
p861
I7
sV\u9006\u5e02
p862
I2
sV\u4f55\u5728
p863
I6
sV\u4fe1\u53f7
p864
I9
sV\u6da6\u7269
p865
I3
sV\u592e\u5a92
p866
I3
sV\u4e07\u5bcc
p867
I2
sV\u50f5\u6301
p868
I4
sV\u673a\u5236
p869
I5
sV\u5229\u6da6
p870
I4
sV\u957f\u671f
p871
I15
sV\u662f\u6d6e
p872
I4
sV\u4ef7\u903c
p873
I3
sV\u89e6\u5e95
p874
I4
sV\u6ca1\u6709
p875
I34
sV\u75db\u6279
p876
I2
sV\u6765\u5341
p877
I4
sV\u5916\u7f6e
p878
I2
sV\u7406\u623f
p879
I5
sV\u9884\u623f
p880
I9
sV\u8be5\u7ed9
p881
I4
sV\u5377\u571f
p882
I3
sV\u4e3b\u4e49
p883
I3
sV\u4e9f\u9700
p884
I2
sV\u5927\u597d
p885
I2
sV\u7a33\u5065
p886
I2
sV\u623f\u653f
p887
I7
sV\u63a7\u65f6
p888
I4
sV\u6218\u4e89
p889
I5
sV\u66f4\u591a
p890
I4
sV\u6216\u5c06
p891
I70
sV\u63a7\u6216
p892
I10
sV\u578b\u662f
p893
I3
sV\u5e02\u5982
p894
I2
sV\u4fdd\u589e
p895
I2
sV\u521a\u5f00
p896
I4
sV\u6298\u78e8
p897
I3
sV\u5bb6\u7f6e
p898
I6
sV\u653f\u662f
p899
I4
sV\u4e00\u6cd3
p900
I2
sV\u65e0\u5f71
p901
I2
sV\u4f5c\u79c0
p902
I3
sV\u63a7\u65e0
p903
I4
sV\u4e1a\u5316
p904
I6
sV\u4f4e\u78b3
p905
I9
sV\u5bcc\u4eba
p906
I7
sV\u5730\u4f4d
p907
I4
sV\u6bd4\u589e
p908
I3
sV\u662f\u8d2d
p909
I6
sV\u88c5\u4fee
p910
I4
sV\u7ed3\u675f
p911
I5
sV\u62a5\u544a
p912
I4
sV\u662f\u8d27
p913
I2
sV\u8981\u5b66
p914
I3
sV\u540c\u6bd4
p915
I3
sV\u5411\u6807
p916
I3
sV\u6d88\u706d
p917
I2
sV\u77ed\u547d
p918
I7
sV\u4f59\u4e30
p919
I4
sV\u9976\u53ca
p920
I3
sV\u7a0e\u8ba9
p921
I3
sV\u7ebf\u697c
p922
I2
sV\u4ef7\u662f
p923
I32
sV\u9996\u5c4a
p924
I3
sV\u786c\u9053
p925
I3
sV\u5bb6\u5ead
p926
I3
sV\u529b\u8c03
p927
I2
sV\u5370\u8c61
p928
I2
sV\u65f6\u4ee3
p929
I57
sV\u4e09\u79cd
p930
I3
sV\u8d2d\u9650
p931
I5
sV\u524d\u697c
p932
I4
sV\u4e24\u5e74
p933
I11
sV\u6253\u9020
p934
I3
sV\u5929\u6d25
p935
I3
sV\u5f00\u76d8
p936
I2
sV\u5473\u7740
p937
I2
sV\u6ce8\u5b9a
p938
I6
sV\u89e3\u91ca
p939
I5
sV\u53d8\u5e94
p940
I2
sV\u5bb6\u5e84
p941
I3
sV\u4e0b\u534a
p942
I26
sV\u5e45\u4e0a
p943
I4
sV\u5e9c\u5bf9
p944
I4
sV\u5f85\u547d
p945
I2
sVwidth
p946
I6
sV\u9000\u5730
p947
I4
sV\u6c34\u5cad
p948
I2
sV\u5730\u4ea7
p949
I626
sV\u5e74\u5168
p950
I4
sV\u5c06\u8ba9
p951
I2
sV\u8868\u6001
p952
I5
sV\u6570\u636e
p953
I9
sV\u6f14\u6700
p954
I2
sV\u82f9\u679c
p955
I3
sV\u766b\u72c2
p956
I2
sV\u5df2\u6210
p957
I7
sV\u6536\u5165
p958
I19
sV\u662f\u88c5
p959
I2
sV\u4ea7\u9500
p960
I3
sV\u6210\u957f
p961
I5
sV\u4e3a\u697c
p962
I4
sV\u7ec8\u6b62
p963
I3
sV\u5982\u5356
p964
I3
sV\u60b2\u54c0
p965
I5
sV\u95f4\u5f88
p966
I2
sV\u6216\u5bf9
p967
I2
sV\u89e3\u51b3
p968
I34
sV\u96be\u89e3
p969
I3
sV\u5927\u65d7
p970
I2
sV\u8981\u7d20
p971
I4
sV\u5730\u4ef7
p972
I30
sV\u5546\u54c1
p973
I44
sV\u627f\u53d7
p974
I6
sV\u91d1\u4e0d
p975
I2
sV\u95ee\u8d23
p976
I15
sV\u4e1a\u52a1
p977
I2
sV\u4e94\u79cd
p978
I2
sV\u53c8\u662f
p979
I3
sV\u4ea7\u5341
p980
I3
sV\u7b56\u57fa
p981
I2
sV\u5b9a\u5730
p982
I2
sV\u7a0e\u8bd5
p983
I6
sV\u4e0d\u529b
p984
I5
sV\u671f\u65e0
p985
I4
sV\u5e02\u5c06
p986
I30
sV\u6301\u4e45
p987
I4
sV\u8fd8\u4e0d
p988
I6
sV\u4eac\u4e8c
p989
I7
sV\u5e02\u5c0f
p990
I5
sV\u65b9\u9762
p991
I2
sV\u5ef6\u7eed
p992
I3
sV\u4e09\u5957
p993
I2
sV\u9762\u4e34
p994
I17
sV\u7ef4\u65ed
p995
I2
sV\u5730\u4e00
p996
I2
sV\u4ef7\u66b4
p997
I23
sV\u4e94\u5927
p998
I28
sV\u4e0a\u5e02
p999
I5
sV\u623f\u5e94
p1000
I3
sV\u7ea2\u4e94
p1001
I4
sV\u8d77\u8c03
p1002
I2
sV\u53d1\u529b
p1003
I5
sV\u540e\u53ef
p1004
I2
sV\u5c06\u9762
p1005
I4
sV\u91cd\u538b
p1006
I7
sV\u5de8\u5927
p1007
I4
sV\u65b0\u52a0
p1008
I2
sV\u79d2\u6740
p1009
I2
sV\u5e02\u5c31
p1010
I3
sV\u65b0\u52a8
p1011
I4
sV\u4eac\u4eba
p1012
I2
sV\u70b9\u601d
p1013
I2
sV\u5c5e\u6027
p1014
I3
sV\u5de6\u53f3
p1015
I5
sV\u52a8\u623f
p1016
I4
sV\u5ec9\u79df
p1017
I6
sV\u6c6a\u6e1d
p1018
I3
sV\u62c9\u52a8
p1019
I3
sV\u9f13\u52b1
p1020
I4
sV\u4e0d\u5229
p1021
I6
sV\u662f\u8c01
p1022
I5
sV\u597d\u65e5
p1023
I3
sV\u547d\u4ee4
p1024
I2
sV\u4ef7\u66f4
p1025
I3
sV\u6fc0\u60c5
p1026
I2
sV\u4e0d\u5230
p1027
I5
sV\u4ef7\u7ade
p1028
I3
sV\u4e0b\u53bb
p1029
I4
sV\u6da8\u6210
p1030
I2
sV\u548c\u697c
p1031
I2
sV\u8ff7\u5c40
p1032
I6
sV\u4ea7\u53ea
p1033
I2
sV\u6709\u7406
p1034
I6
sV\u7ecf\u6d4e
p1035
I84
sV\u91ca\u653e
p1036
I6
sV\u9650\u5916
p1037
I10
sV\u4ea7\u53d1
p1038
I5
sV\u626d\u66f2
p1039
I2
sV\u5e73\u7c73
p1040
I5
sV\u4ee4\u521a
p1041
I2
sV\u4f7f\u7528
p1042
I3
sV\u6539\u5584
p1043
I8
sV\u7ba1\u4f4f
p1044
I4
sV\u7834\u706d
p1045
I4
sV\u6380\u8d77
p1046
I3
sV\u6740\u623f
p1047
I2
sV\u4e09\u5927
p1048
I39
sV\u4e09\u56db
p1049
I9
sV\u4ea7\u5c31
p1050
I3
sV\u5728\u5373
p1051
I3
sV\u4e86\u8c01
p1052
I4
sV\u5085\u7855
p1053
I2
sV\u6709\u4fdd
p1054
I3
sV\u6284\u5e95
p1055
I11
sV\u7a77\u4eba
p1056
I11
sV\u5165\u6df1
p1057
I2
sV\u7f18\u4f55
p1058
I3
sV\u80f6\u7740
p1059
I3
sV\u94f6\u5341
p1060
I41
sV\u987b\u5f97
p1061
I2
sV\u5c06\u8dcc
p1062
I3
sV\u5e74\u5e74
p1063
I3
sV\u5371\u673a
p1064
I18
sV\u6bd4\u9650
p1065
I2
sV\u4f4f\u9700
p1066
I2
sV\u6d3b\u8dc3
p1067
I5
sV\u4ea7\u5c06
p1068
I6
sV\u5e02\u73b0
p1069
I4
sV\u8981\u7279
p1070
I2
sV\u73b0\u5728
p1071
I16
sV\u6253\u5f00
p1072
I2
sV\u4fdd\u9669
p1073
I3
sV\u4e00\u623f
p1074
I9
sV\u5404\u5730
p1075
I5
sV\u5927\u589e
p1076
I2
sV\u8d22\u4ea7
p1077
I4
sV\u518d\u6b21
p1078
I11
sV\u4e0d\u9ad8
p1079
I2
sV\u6210\u7a7a
p1080
I5
sV\u5e02\u53cd
p1081
I4
sV\u5e94\u66f4
p1082
I2
sV\u5b85\u9700
p1083
I3
sV\u6de1\u5e02
p1084
I2
sV\u63a7\u6b63
p1085
I6
sV\u5e02\u53d1
p1086
I9
sV\u623f\u8ba9
p1087
I4
sV\u666e\u964d
p1088
I3
sV\u8dcc\u623f
p1089
I4
sV\u5e02\u53d8
p1090
I7
sV\u7ea7\u8c6a
p1091
I2
sV\u624b\u697c
p1092
I4
sV\u6216\u52a0
p1093
I3
sV\u5ba3\u544a
p1094
I3
sV\u7a0e\u66f4
p1095
I2
sV\u51b3\u623f
p1096
I7
sV\u5927\u53d1
p1097
I3
sV\u66f4\u5927
p1098
I3
sV\u8d62\u5bb6
p1099
I2
sV\u4f9d\u65e7
p1100
I9
sV\u56de\u6f6e
p1101
I3
sV\u5b85\u5730
p1102
I3
sV\u6807\u5fd7
p1103
I5
sV\u6253\u51fb
p1104
I8
sV\u7b56\u5802
p1105
I28
sV\u4ea7\u65e0
p1106
I2
sV\u6d6a\u8d39
p1107
I2
sV\u6b65\u5165
p1108
I7
sV\u8d44\u5ba2
p1109
I5
sV\u5fc3\u6001
p1110
I4
sV\u4ef7\u5148
p1111
I3
sV\u524a\u5f31
p1112
I2
sV\u53cd\u66b4
p1113
I5
sV\u5e02\u5316
p1114
I12
sV\u5404\u79cd
p1115
I2
sV\u5e74\u7ec8
p1116
I3
sV\u5341\u6216
p1117
I6
sV\u5e02\u731c
p1118
I3
sV\u5927\u53d8
p1119
I4
sV\u5148\u5146
p1120
I3
sV\u8f6c\u53d8
p1121
I9
sV\u538b\u697c
p1122
I2
sV\u9648\u987a
p1123
I4
sV\u4e24\u91cd
p1124
I3
sV\u4f4f\u578b
p1125
I5
sV\u653f\u6548
p1126
I2
sV\u4ef7\u8981
p1127
I4
sV\u5bf9\u9ad8
p1128
I4
sV\u5b9a\u4e86
p1129
I3
sV\u51b0\u51bb
p1130
I2
sV\u610f\u6deb
p1131
I3
sV\u8981\u51fa
p1132
I2
sV\u8054\u7f51
p1133
I5
sV\u6298\u817e
p1134
I11
sV\u718a\u5e02
p1135
I3
sV\u5b85\u57fa
p1136
I3
sV\u91d1\u878d
p1137
I13
sV\u66f4\u9760
p1138
I3
sV\u524d\u63d0
p1139
I3
sV\u65f6\u8c03
p1140
I3
sV\u5e02\u5341
p1141
I3
sV\u4fdd\u969c
p1142
I102
sV\u5e74\u5e95
p1143
I20
sV\u4e4b\u8def
p1144
I10
sV\u5730\u65b0
p1145
I3
sV\u865a\u6643
p1146
I2
sV\u540c\u65f6
p1147
I3
sV\u65e0\u5173
p1148
I8
sV\u7f6e\u4e1a
p1149
I29
sV\u6da8\u662f
p1150
I7
sV\u70b8\u5f39
p1151
I2
sV\u4e00\u62db
p1152
I4
sV\u578b\u6539
p1153
I2
sV\u603b\u662f
p1154
I5
sV\u591a\u5c11
p1155
I11
sV\u5e02\u535a
p1156
I3
sV\u5c71\u6c34
p1157
I2
sV\u5d29\u76d8
p1158
I9
sV\u9f13\u5439
p1159
I2
sV\u4ef7\u89c1
p1160
I2
sV\u5931\u8861
p1161
I3
sV\u732b\u732b
p1162
I2
sV\u6740\u8d2b
p1163
I3
sV\u8c03\u5c06
p1164
I3
sV\u7eff\u57ce
p1165
I4
sV\u6548\u7528
p1166
I3
sV\u95f4\u4e0d
p1167
I2
sV\u4ea4\u521b
p1168
I2
sV\u6027\u4f4f
p1169
I12
sV\u53d8\u6570
p1170
I7
sV\u6c11\u4e0d
p1171
I3
sV\u7f51\u53c8
p1172
I2
sV\u63a8\u51fa
p1173
I5
sV\u771f\u5b9e
p1174
I6
sV\u4f1a\u7ee7
p1175
I3
sVbr
p1176
I6
sV\u62db\u62db
p1177
I2
sV\u7092\u623f
p1178
I20
sV\u66b4\u529b
p1179
I2
sV\u89c1\u6210
p1180
I3
sV\u4e2d\u6751
p1181
I3
sV\u5f3a\u5236
p1182
I2
sV\u4ef7\u683c
p1183
I34
sV\u521b\u65b0
p1184
I10
sV\u9635\u75db
p1185
I4
sV\u660e\u5e74
p1186
I40
sV\u9700\u8c28
p1187
I4
sV\u9636\u7ea7
p1188
I3
sV\u529b\u623f
p1189
I2
sV\u5f00\u542f
p1190
I5
sV\u6216\u53ef
p1191
I4
sV\u4f1a\u5bfc
p1192
I3
sV\u5927\u5468
p1193
I2
sV\u6e90\u4e8e
p1194
I8
sV\u81ea\u6709
p1195
I4
sV\u9700\u6c42
p1196
I35
sV\u4e00\u6ce2
p1197
I2
sV\u6b63\u5728
p1198
I32
sV\u8981\u5305
p1199
I2
sV\u5ea6\u6539
p1200
I5
sV\u4e2d\u6709
p1201
I5
sV\u522b\u518d
p1202
I4
sV\u8c03\u51c6
p1203
I4
sV\u610f\u613f
p1204
I3
sV\u79cd\u601d
p1205
I3
sV\u6240\u5f97
p1206
I3
sV\u91cf\u4ef7
p1207
I10
sV\u6240\u6709
p1208
I4
sV\u66f4\u96be
p1209
I4
sV\u77f3\u5c79
p1210
I27
sV\u53d1\u5c55
p1211
I55
sV\u90e8\u59d4
p1212
I4
sV\u81ea\u7701
p1213
I2
sV\u6216\u73b0
p1214
I4
sV\u5706\u6ee1
p1215
I2
sV\u6c42\u53d7
p1216
I2
sV\u6cbb\u6807
p1217
I3
sV\u9500\u65f6
p1218
I2
sV\u6c38\u8fdc
p1219
I6
sV\u8fd8\u80fd
p1220
I4
sV\u51b0\u706b
p1221
I3
sV\u4e8b\u5b9e
p1222
I3
sV\u5c31\u662f
p1223
I17
sV\u8981\u6bd4
p1224
I2
sV\u5165\u5546
p1225
I2
sV\u4eba\u662f
p1226
I4
sV\u665a\u4f1a
p1227
I2
sV\u5316\u4e4b
p1228
I2
sV\u8513\u5ef6
p1229
I3
sV\u4ee4\u623f
p1230
I2
sV\u5341\u4e0d
p1231
I2
sV\u671b\u8c03
p1232
I2
sV\u6709\u6240
p1233
I2
sV\u8d77\u623f
p1234
I16
sV\u662f\u6253
p1235
I3
sV\u60f3\u8981
p1236
I2
sV\u7a0e\u6536
p1237
I7
sV\u91cf\u4e0b
p1238
I3
sV\u80fd\u6210
p1239
I4
sV\u8ba9\u571f
p1240
I2
sV\u51b0\u70b9
p1241
I2
sV\u671b\u623f
p1242
I4
sV\u50bb\u74dc
p1243
I3
sV\u5e02\u9ec4
p1244
I3
sV\u96be\u6709
p1245
I3
sV\u7406\u8d22
p1246
I3
sV\u5e02\u5230
p1247
I3
sV\u5173\u952e
p1248
I19
sV\u8fdb\u6b65
p1249
I4
sV\u5e94\u6709
p1250
I2
sV\u4ee4\u6216
p1251
I4
sV\u4e2a\u6708
p1252
I2
sV\u8bc4\u8bf4
p1253
I3
sV\u6e90\u4e0d
p1254
I2
sV\u9650\u5730
p1255
I3
sV\u4ea7\u5df2
p1256
I6
sV\u597d\u697c
p1257
I2
sV\u4e1a\u5c06
p1258
I2
sV\u675c\u7edd
p1259
I4
sV\u5316\u4e0d
p1260
I2
sV\u5316\u4e0e
p1261
I4
sV\u8fce\u63a5
p1262
I3
sV\u5728\u523a
p1263
I2
sV\u4f55\u786e
p1264
I3
sV\u70b9\u623f
p1265
I2
sV\u7f8e\u56fd
p1266
I29
sV\u5149\u534e
p1267
I3
sV\u552e\u91d1
p1268
I3
sV\u8fd0\u52a8
p1269
I5
sV\u592a\u5927
p1270
I4
sV\u65e0\u507f
p1271
I5
sV\u79ef\u91d1
p1272
I22
sV\u7a76\u623f
p1273
I2
sV\u9152\u5e97
p1274
I5
sV\u6d41\u5165
p1275
I3
sV\u7cbe\u795e
p1276
I6
sV\u57ce\u5e02
p1277
I123
sV\u8ba9\u9752
p1278
I3
sV\u5165\u5e02
p1279
I5
sV\u662f\u623f
p1280
I41
sV\u4e8c\u5957
p1281
I9
sV\u8bef\u8bfb
p1282
I5
sV\u6027\u53cd
p1283
I3
sV\u56db\u4e2a
p1284
I4
sV\u601d\u8def
p1285
I6
sV\u6211\u4e0e
p1286
I2
sV\u805a\u7126
p1287
I2
sV\u4efb\u91cd
p1288
I5
sV\u96be\u64bc
p1289
I2
sV\u79cb\u4ea4
p1290
I2
sV\u9996\u5148
p1291
I2
sV\u5e02\u518d
p1292
I7
sV\u89c2\u7ecf
p1293
I5
sV\u6279\u5224
p1294
I2
sV\u79df\u91d1
p1295
I11
sV\u6f6e\u6765
p1296
I3
sV\u4e86\u4e00
p1297
I3
sV\u52a9\u63a8
p1298
I10
sV\u5728\u516c
p1299
I2
sV\u523a\u7834
p1300
I3
sV\u7ee7\u7eed
p1301
I28
sV\u5b89\u5c45
p1302
I2
sV\u4e0d\u5fc5
p1303
I3
sV\u5e9c\u76f4
p1304
I3
sV\u662f\u81ea
p1305
I3
sV\u7248\u56fd
p1306
I4
sV\u623f\u6216
p1307
I2
sV\u6d41\u52a8
p1308
I4
sV\u6cd5\u5316
p1309
I3
sV\u9500\u552e
p1310
I15
sV\u4eba\u73b0
p1311
I2
sV\u9006\u52bf
p1312
I3
sV\u5047\u671f
p1313
I3
sV\u4ea7\u5e02
p1314
I101
sV\u592a\u7acb
p1315
I5
sV\u8c01\u80fd
p1316
I2
sV\u623f\u89c2
p1317
I7
sV\u552e\u5236
p1318
I5
sV\u575a\u51b3
p1319
I5
sV\u4ef7\u6b63
p1320
I6
sV\u9003\u4e0d
p1321
I2
sV\u5e02\u91cc
p1322
I7
sV\u5e02\u91cd
p1323
I3
sV\u63a7\u697c
p1324
I6
sV\u6050\u96be
p1325
I4
sV\u65e0\u53ef
p1326
I4
sV\u5357\u5317
p1327
I2
sV\u8981\u5bf9
p1328
I4
sV\u63a8\u52a8
p1329
I8
sV\u5e02\u91d1
p1330
I6
sV\u5e74\u5c06
p1331
I5
sV\u4ece\u4e8c
p1332
I2
sV\u7279\u8272
p1333
I3
sV\u5236\u697c
p1334
I3
sV\u5b85\u4ef7
p1335
I2
sV\u5ea6\u662f
p1336
I4
sV\u534a\u573a
p1337
I3
sV\u6708\u997c
p1338
I2
sV\u7a0e\u6291
p1339
I2
sV\u4eac\u5f00
p1340
I3
sV\u5f97\u9760
p1341
I2
sV\u8d39\u8005
p1342
I4
sV\u5b9e\u8d28
p1343
I7
sV\u4e0d\u5f97
p1344
I4
sV\u5ea6\u6b63
p1345
I2
sV\u4e07\u5723
p1346
I2
sV\u6a21\u5757
p1347
I5
sV\u544a\u522b
p1348
I3
sV\u6559\u80b2
p1349
I5
sV\u623f\u8981
p1350
I6
sV\u91d1\u65b0
p1351
I8
sV\u68a6\u60f3
p1352
I6
sV\u5077\u9e21
p1353
I2
sV\u7a0e\u662f
p1354
I19
sV\u662f\u6619
p1355
I3
sV\u6708\u9996
p1356
I2
sV\u56e0\u662f
p1357
I7
sV\u4ef7\u8ba9
p1358
I6
sV\u5df2\u8fdb
p1359
I2
sV\u613f\u666f
p1360
I2
sV\u624b\u6bb5
p1361
I16
sV\u6027\u8d2d
p1362
I7
sV\u56e2\u7b2c
p1363
I3
sV\u8fdb\u884c
p1364
I7
sV\u4fe1\u5fc3
p1365
I10
sV\u91cd\u5e86
p1366
I11
sV\u56db\u8d77
p1367
I2
sV\u731c\u60f3
p1368
I16
sV\u5efa\u7acb
p1369
I3
sV\u52a0\u6548
p1370
I2
sV\u4e2a\u903b
p1371
I2
sV\u7edd\u5bf9
p1372
I3
sV\u6625\u8282
p1373
I8
sV\u5916\u5370
p1374
I3
sV\u8ba1\u5212
p1375
I11
sV\u63a7\u8981
p1376
I9
sV\u4e50\u5c45
p1377
I5
sV\u52bf\u4e0b
p1378
I2
sV\u5c06\u662f
p1379
I14
sV\u4f53\u7cfb
p1380
I3
sV\u6709\u591a
p1381
I8
sV\u80c0\u9884
p1382
I3
sV\u91d1\u65f6
p1383
I3
sV\u5c40\u4e0b
p1384
I3
sV\u5b9d\u5b58
p1385
I8
sV\u6b63\u63a8
p1386
I2
sV\u552f\u4e00
p1387
I9
sV\u5927\u54e5
p1388
I2
sV\u4e0a\u534a
p1389
I7
sV\u6b66\u5668
p1390
I2
sV\u4e0a\u5347
p1391
I6
sV\u6cab\u4f9d
p1392
I2
sV\u91cd\u5efa
p1393
I3
sV\u5e02\u5165
p1394
I3
sV\u6740\u4f24
p1395
I2
sV\u6e29\u5dde
p1396
I7
sV\u4e00\u767e
p1397
I3
sV\u4e70\u65b9
p1398
I6
sV\u5c40\u4e2d
p1399
I2
sV\u5c0a\u656c
p1400
I2
sV\u4e8e\u4ee5
p1401
I2
sV\u6709\u592a
p1402
I2
sV\u795e\u9a6c
p1403
I4
sV\u623f\u5f81
p1404
I4
sV\u63a7\u89c1
p1405
I2
sV\u4ea7\u7ecf
p1406
I5
sV\u4e71\u8c61
p1407
I3
sV\u7ecf\u8054
p1408
I15
sV\u6210\u98ce
p1409
I2
sV\u6709\u5927
p1410
I2
sV\u6536\u7d27
p1411
I11
sV\u8981\u5148
p1412
I4
sV\u4ee5\u4eba
p1413
I3
sV\u5e86\u5f00
p1414
I4
sV\u65b9\u5bfc
p1415
I7
sV\u9965\u6e34
p1416
I2
sV\u5e02\u9700
p1417
I3
sV\u6da8\u65e0
p1418
I2
sV\u51ac\u5929
p1419
I4
sV\u8d44\u91d1
p1420
I33
sV\u4ea4\u91cf
p1421
I18
sV\u6cd5\u5219
p1422
I2
sV\u4e1a\u7ee9
p1423
I5
sV\u5b89\u5168
p1424
I3
sV\u4e4b\u4e0b
p1425
I6
sV\u4e4b\u4e0a
p1426
I2
sV\u653e\u7f13
p1427
I4
sV\u4e4b\u6211
p1428
I3
sV\u662f\u80e1
p1429
I2
sV\u8df3\u6c34
p1430
I3
sV\u7eaa\u884c
p1431
I4
sV\u89c2\u5ff5
p1432
I8
sV\u8c28\u614e
p1433
I9
sV\u5927\u6982
p1434
I2
sV\u9707\u8361
p1435
I3
sV\u4ea7\u5f00
p1436
I13
sV\u653e\u5f00
p1437
I3
sV\u4eac\u623f
p1438
I23
sV\u653e\u5f03
p1439
I3
sV\u7834\u51b0
p1440
I3
sV\u5efa\u7b51
p1441
I26
sV\u96ea\u677e
p1442
I3
sV\u54cd\u5fae
p1443
I2
sV\u4e70\u8f66
p1444
I2
sV\u67f1\u4ea7
p1445
I3
sV\u884c\u52a0
p1446
I3
sV\u9648\u5b9d
p1447
I8
sV\u9996\u9009
p1448
I2
sV\u62dc\u62dc
p1449
I2
sV\u52bf\u5934
p1450
I2
sV\u6307\u671b
p1451
I9
sV\u6216\u518d
p1452
I4
sV\u884c\u52a8
p1453
I5
sV\u5e02\u6709
p1454
I7
sV\u8d28\u662f
p1455
I3
sV\u63a7\u540e
p1456
I11
sV\u5bd2\u51ac
p1457
I5
sV\u5df2\u4e0d
p1458
I3
sV\u52a8\u4ea7
p1459
I5
sV\u63a7\u8868
p1460
I2
sV\u65b0\u5e74
p1461
I7
sV\u98ce\u4e91
p1462
I2
sV\u5e02\u70ed
p1463
I5
sV\u4f73\u65f6
p1464
I3
sV\u6cab\u4e2d
p1465
I2
sV\u4e86\u4f60
p1466
I2
sV\u4e0d\u5e94
p1467
I16
sV\u7a81\u7834
p1468
I8
sV\u7acb\u6cd5
p1469
I6
sV\u4e0d\u540c
p1470
I7
sV\u7b56\u5bf9
p1471
I2
sV\u52a8\u4e86
p1472
I4
sV\u884c\u529b
p1473
I3
sV\u8d85\u8d8a
p1474
I2
sV\u5730\u6210
p1475
I4
sV\u52a8\u5411
p1476
I4
sV\u53d8\u660e
p1477
I2
sV\u5eca\u574a
p1478
I3
sV\u52a9\u623f
p1479
I2
sV\u5927\u65f6
p1480
I2
sV\u6765\u98ce
p1481
I2
sV\u6743\u8981
p1482
I2
sV\u4e16\u754c
p1483
I14
sV\u65e5\u672c
p1484
I3
sV\u623f\u5212
p1485
I2
sV\u6210\u8d25
p1486
I2
sV\u80fd\u6027
p1487
I11
sV\u6ea2\u4ef7
p1488
I3
sV\u7537\u5973
p1489
I2
sV\u9a7e\u9a6d
p1490
I2
sV\u6700\u5e94
p1491
I2
sV\u606f\u6216
p1492
I4
sV\u5c06\u6709
p1493
I9
sV\u5316\u662f
p1494
I8
sV\u4e3a\u65b0
p1495
I2
sV\u62a5\u590d
p1496
I3
sV\u7126\u8651
p1497
I4
sV\u5e93\u5b58
p1498
I3
sV\u73b0\u4ee3
p1499
I4
sV\u836f\u6027
p1500
I3
sV\u4e2d\u65ec
p1501
I3
sV\u4e4b\u4e89
p1502
I2
sV\u5730\u623f
p1503
I3
sV\u53d6\u51b3
p1504
I8
sV\u6027\u8c03
p1505
I4
sV\u4e1a\u5e74
p1506
I2
sV\u6e10\u8d8b
p1507
I2
sV\u96be\u514d
p1508
I2
sV\u9996\u90fd
p1509
I6
sV\u8303\u56f4
p1510
I3
sV\u8dc3\u8fdb
p1511
I4
sV\u9677\u5165
p1512
I10
sV\u4e8c\u5b63
p1513
I3
sV\u8981\u56e0
p1514
I2
sV\u6700\u7ec8
p1515
I5
sV\u5927\u697c
p1516
I6
sV\u8981\u518d
p1517
I8
sV\u7a0e\u6765
p1518
I2
sV\u4e0d\u52a8
p1519
I6
sV\u975e\u4e3b
p1520
I2
sV\u540e\u697c
p1521
I8
sV\u522b\u5316
p1522
I3
sV\u95f4\u5927
p1523
I2
sV\u4e3a\u65f6
p1524
I3
sV\u7ea2\u7ebf
p1525
I4
sV\u9650\u552e
p1526
I5
sV\u540e\u4e0d
p1527
I2
sV\u5fc5\u4fee
p1528
I2
sV\u4e3a\u96be
p1529
I2
sV\u524d\u594f
p1530
I4
sV\u4f1a\u5927
p1531
I5
sV\u6d6a\u4e50
p1532
I3
sV\u5e02\u706b
p1533
I2
sV\u4f4f\u7387
p1534
I3
sV\u4e2a\u7a0e
p1535
I7
sVsoho
p1536
I4
sV\u9ad8\u697c
p1537
I3
sV\u80fd\u771f
p1538
I2
sV\u539f\u56e0
p1539
I37
sV\u9547\u5316
p1540
I21
sV\u56fd\u8db3
p1541
I3
sV\u623f\u8ff7
p1542
I2
sV\u8425\u623f
p1543
I2
sV\u4e3a\u623f
p1544
I10
sV\u56de\u5bb6
p1545
I8
sV\u7d27\u5f00
p1546
I2
sV\u6700\u591a
p1547
I2
sV\u6709\u5fc5
p1548
I4
sV\u623f\u4fe1
p1549
I7
sV\u5e02\u8981
p1550
I2
sV\u5531\u8870
p1551
I2
sV\u623f\u4fdd
p1552
I16
sV\u6d3b\u52a8
p1553
I4
sV\u6700\u5927
p1554
I21
sV\u623f\u8fd8
p1555
I2
sV\u4e8e\u5e02
p1556
I3
sV\u5730\u65b9
p1557
I41
sV\u6321\u4e0d
p1558
I3
sV\u5e94\u6293
p1559
I2
sV\u4e25\u8c03
p1560
I4
sV\u654f\u611f
p1561
I7
sV\u5e94\u628a
p1562
I2
sV\u65c5\u6e38
p1563
I10
sV\u72c2\u697c
p1564
I4
sV\u5927\u4e8e
p1565
I4
sV\u5927\u4e8b
p1566
I6
sV\u5c06\u6025
p1567
I2
sV\u7ebf\u623f
p1568
I5
sV\u653f\u6cbb
p1569
I6
sV\u4e5d\u6e90
p1570
I3
sV\u8131\u7f30
p1571
I2
sV\u63a7\u4f7f
p1572
I3
sV\u8dcc\u662f
p1573
I6
sV\u5b8b\u536b
p1574
I2
sV\u4ea7\u9879
p1575
I3
sV\u4e09\u5e74
p1576
I3
sV\u5931\u8c03
p1577
I3
sV\u7a0e\u80fd
p1578
I4
sV\u4ef7\u8d70
p1579
I8
sV\u6709\u5f85
p1580
I4
sV\u76f2\u76ee
p1581
I4
sV\u7cca\u6d82
p1582
I4
sV\u666e\u6da8
p1583
I2
sV\u623f\u4f9b
p1584
I5
sV\u548c\u5730
p1585
I3
sV\u4e0d\u5982
p1586
I20
sV\u8fd9\u6b21
p1587
I3
sV\u9274\u56e2
p1588
I3
sV\u72b9\u5982
p1589
I3
sV\u8d44\u96be
p1590
I5
sV929
p1591
I4
sV\u573a\u4fe1
p1592
I3
sV\u503c\u89c2
p1593
I2
sV\u597d\u4e8b
p1594
I4
sV\u5de5\u4e1a
p1595
I3
sV\u4ece\u6e90
p1596
I2
sV\u76f4\u63a5
p1597
I7
sV\u53eb\u677f
p1598
I4
sV\u9ad8\u4ef7
p1599
I8
sV\u6700\u597d
p1600
I6
sV\u5a5a\u4e0d
p1601
I3
sV\u9700\u8981
p1602
I46
sV\u8bd5\u70b9
p1603
I10
sV\u540e\u4e2d
p1604
I2
sV\u52a8\u697c
p1605
I2
sV\u4f9b\u5e94
p1606
I21
sV\u5e02\u5708
p1607
I3
sV\u5e95\u7ebf
p1608
I6
sV\u4ef7\u6da8
p1609
I19
sV\u6d41\u5411
p1610
I4
sV\u623f\u6f6e
p1611
I7
sV\u5927\u4e25
p1612
I5
sV\u671f\u4e0b
p1613
I6
sV\u671f\u4e0a
p1614
I4
sV\u9677\u9631
p1615
I5
sV\u548c\u623f
p1616
I10
sV\u5e02\u771f
p1617
I4
sV\u51fa\u8ba9
p1618
I3
sV\u63a7\u4e5f
p1619
I3
sV\u7b56\u529b
p1620
I3
sV\u5fd7\u9762
p1621
I2
sV\u540e\u4e00
p1622
I5
sV\u63a7\u4f9d
p1623
I3
sV\u5e02\u5728
p1624
I13
sV\u4ef7\u8d8a
p1625
I7
sV\u5e94\u6210
p1626
I3
sV\u671f\u4e2d
p1627
I3
sV\u5e02\u5730
p1628
I5
sV\u591a\u9879
p1629
I2
sV\u4eac\u65b0
p1630
I7
sV\u5927\u4e0d
p1631
I5
sV\u9a6c\u90fd
p1632
I2
sV\u8fd0\u57ce
p1633
I4
sV\u4e3a\u6291
p1634
I2
sV\u5e02\u573a
p1635
I240
sV\u8d77\u6765
p1636
I6
sV\u7a0e\u6cd5
p1637
I2
sV\u5546\u5e94
p1638
I4
sV\u6da8\u623f
p1639
I9
sV\u662f\u6709
p1640
I5
sV\u9879\u76ee
p1641
I9
sV\u4f9b\u7ed9
p1642
I2
sV\u5927\u60ac
p1643
I2
sV\u8f6c\u578b
p1644
I18
sV\u5411\u623f
p1645
I4
sV\u662f\u6700
p1646
I7
sV\u5148\u950b
p1647
I2
sV\u8fdb\u4e00
p1648
I5
sV\u4ef7\u8df3
p1649
I3
sV\u5e02\u975e
p1650
I2
sV\u4e94\u89c4
p1651
I4
sV\u662f\u771f
p1652
I3
sV\u751f\u547d
p1653
I5
sV\u5370\u82b1
p1654
I4
sV\u5f7b\u5e95
p1655
I3
sV\u4e1b\u5c79
p1656
I6
sV\u4ef7\u8dcc
p1657
I13
sV\u63a7\u8fdb
p1658
I12
sV\u76ae\u4e66
p1659
I3
sV\u7528\u571f
p1660
I2
sV\u63a7\u8fc7
p1661
I3
sV\u914d\u5957
p1662
I3
sV\u602a\u5708
p1663
I4
sV\u5168\u7ecf
p1664
I5
sV\u573a\u8fdb
p1665
I4
sV\u4ea7\u98ce
p1666
I3
sV\u4e0d\u591f
p1667
I7
sV\u731b\u836f
p1668
I4
sV\u623f\u4f01
p1669
I85
sV\u4ef7\u5df2
p1670
I3
sV\u91cd\u5927
p1671
I5
sV\u6545\u4e8b
p1672
I3
sV\u4e91\u5cf0
p1673
I5
sV\u7578\u5f62
p1674
I7
sV\u4ecd\u6709
p1675
I4
sV\u63a7\u4e3b
p1676
I3
sV\u63a7\u4e3a
p1677
I7
sV\u6839\u672c
p1678
I12
sV\u4ea7\u5927
p1679
I4
sV\u63a7\u4e24
p1680
I5
sV\u6a21\u5f0f
p1681
I17
sV\u6068\u4ea4
p1682
I2
sV\u6d3e\u80e1
p1683
I3
sV\u5f3a\u7248
p1684
I2
sV\u62c9\u5f00
p1685
I5
sV\u63a7\u4e2d
p1686
I8
sV\u51e0\u70b9
p1687
I7
sV\u96be\u63a5
p1688
I2
sV\u53d7\u9ad8
p1689
I3
sV\u573a\u4e0d
p1690
I4
sV\u573a\u4e0e
p1691
I4
sV\u91d1\u53ea
p1692
I2
sV\u4ef7\u8c03
p1693
I18
sV\u4ef7\u8c01
p1694
I3
sV\u54cd\u4e0d
p1695
I3
sV\u5bf9\u4e2d
p1696
I4
sV\u8bef\u4f24
p1697
I4
sV\u57fa\u7840
p1698
I4
sV\u6025\u9700
p1699
I3
sV\u7aef\u623f
p1700
I2
sV\u7ea0\u7ed3
p1701
I16
sV\u65ad\u65f6
p1702
I2
sV\u63a7\u4e00
p1703
I3
sV\u4e3b\u65cb
p1704
I2
sV\u63a7\u4e0e
p1705
I3
sV\u5e02\u96be
p1706
I5
sV\u63a7\u4e0b
p1707
I14
sV\u7a33\u5b9a
p1708
I34
sV\u667a\u6167
p1709
I9
sV\u5e01\u8d85
p1710
I3
sV\u623f\u4eba
p1711
I10
sV\u6dd8\u623f
p1712
I2
sV\u8981\u770b
p1713
I4
sV\u5206\u5272
p1714
I3
sV\u964d\u53ea
p1715
I2
sV\u4ee5\u623f
p1716
I7
sV\u65e0\u94f6
p1717
I2
sV\u5927\u4fe1
p1718
I4
sV\u623f\u4ea7
p1719
I291
sV\u5e02\u56de
p1720
I14
sV\u623f\u4ea4
p1721
I7
sV\u770b\u623f
p1722
I8
sV\u8d28\u6027
p1723
I3
sV\u82e5\u4e0d
p1724
I2
sV\u6c47\u7387
p1725
I2
sV\u4e00\u6761
p1726
I5
sV\u65f6\u5c1a
p1727
I2
sV\u8db3\u7403
p1728
I4
sV\u6838\u5fc3
p1729
I13
sV\u6050\u6015
p1730
I3
sV\u4e86\u697c
p1731
I7
sV\u4e70\u623f
p1732
I102
sV\u5e02\u96ea
p1733
I2
sV\u623f\u6e90
p1734
I4
sV\u5316\u8fdb
p1735
I3
sV\u4ed6\u5c71
p1736
I4
sV\u623f\u4e8c
p1737
I4
sV\u623f\u4e8b
p1738
I8
sV\u6ce8\u91cd
p1739
I4
sV\u63a7\u4e4b
p1740
I8
sV\u4f1a\u5e26
p1741
I3
sV\u7edf\u8ba1
p1742
I10
sV\u4ee4\u662f
p1743
I4
sV\u5206\u5316
p1744
I13
sV\u7f8e\u52a0
p1745
I2
sV\u5341\u6708
p1746
I10
sV\u5e02\u5b9a
p1747
I2
sV\u4fc3\u9500
p1748
I10
sV\u5fc5\u8981
p1749
I7
sV\u6f5c\u529b
p1750
I6
sV\u623f\u4e70
p1751
I4
sVmiddle
p1752
I6
sV\u5e26\u6765
p1753
I9
sV\u4e09\u5341
p1754
I5
sV\u80fd\u662f
p1755
I3
sV\u4ef7\u6362
p1756
I3
sV\u623f\u4e5f
p1757
I3
sV\u54cd\u4e86
p1758
I3
sV\u73b0\u72b6
p1759
I9
sV\u5fb7\u4ec1
p1760
I5
sV\u706b\u4e24
p1761
I3
sV\u4e00\u67aa
p1762
I4
sV\u6784\u6027
p1763
I6
sV\u63a7\u5fc5
p1764
I7
sV\u8ba9\u5317
p1765
I2
sV\u4e1a\u987e
p1766
I3
sV\u903c\u5f97
p1767
I3
sV\u56f4\u6269
p1768
I2
sV\u96be\u6301
p1769
I2
sV\u952e\u8bcd
p1770
I2
sV\u793e\u4f1a
p1771
I23
sV\u4ece\u4f55
p1772
I2
sV\u624d\u4f1a
p1773
I3
sV\u8c03\u8d8a
p1774
I3
sV\u9ad8\u4f4e
p1775
I3
sV\u623f\u4e3a
p1776
I3
sV\u4ef7\u6ce1
p1777
I11
sV\u9ad8\u4f4d
p1778
I3
sV\u5e02\u964d
p1779
I3
sV\u5b9e\u4e3a
p1780
I2
sV\u4e0d\u7834
p1781
I3
sV\u5e02\u9650
p1782
I20
sV\u5c14\u5170
p1783
I4
sV\u63a7\u6ee1
p1784
I3
sV\u98ce\u5411
p1785
I2
sV\u94b1\u8352
p1786
I3
sV\u573a\u4ef7
p1787
I3
sV\u5bb9\u6613
p1788
I6
sV\u507f\u6761
p1789
I2
sV\u5341\u6761
p1790
I8
sV\u4eba\u624d
p1791
I6
sV\u5a5a\u6f6e
p1792
I2
sV\u9ad8\u6f6e
p1793
I4
sV\u4e3e\u529e
p1794
I2
sV\u662f\u4eba
p1795
I3
sV\u6216\u5728
p1796
I2
sV\u8270\u96be
p1797
I5
sV\u7ef4\u7a33
p1798
I4
sV\u628a\u63e1
p1799
I3
sV\u623f\u4e0d
p1800
I19
sV\u5e02\u9677
p1801
I4
sV\u4e0a\u5468
p1802
I2
sV\u4ea7\u79c1
p1803
I2
sV\u5bf9\u9650
p1804
I2
sV\u63a7\u4ecd
p1805
I3
sV\u4f18\u60e0
p1806
I3
sV\u623f\u4e00
p1807
I11
sVgdp
p1808
I5
sV\u6210\u5c31
p1809
I4
sV\u6c14\u6d3b
p1810
I2
sV\u6211\u56fd
p1811
I11
sV\u51fa\u697c
p1812
I2
sV\u7eaf\u5c5e
p1813
I4
sV\u66f4\u91cd
p1814
I7
sV\u5b57\u5f53
p1815
I4
sV\u697c\u76d8
p1816
I4
sV\u4e8c\u7ebf
p1817
I10
sV\u8fb9\u60f3
p1818
I7
sV\u5c06\u6765
p1819
I2
sV\u5408\u7406
p1820
I21
sV\u969c\u7acb
p1821
I2
sV\u6d88\u9884
p1822
I4
sV\u51fb\u9f13
p1823
I2
sV\u7136\u5408
p1824
I3
sV\u53cd\u800c
p1825
I3
sV\u91cd\u7a0e
p1826
I3
sV\u65b9\u7ec6
p1827
I4
sV\u9009\u62e9
p1828
I16
sV\u623f\u4ef7
p1829
I983
sV\u76d8\u70b9
p1830
I12
sV\u7c7b\u4eba
p1831
I2
sV\u53cd\u601d
p1832
I6
sV\u4ea7\u7a0e
p1833
I226
sV\u4ef7\u4f1a
p1834
I7
sV\u4e89\u529b
p1835
I3
sV\u7a33\u589e
p1836
I4
sV\u4e2d\u8003
p1837
I3
sV\u89c1\u6548
p1838
I5
sV\u662f\u597d
p1839
I3
sV\u5ea6\u623f
p1840
I9
sV\u56db\u8981
p1841
I2
sV\u5f39\u4e3a
p1842
I2
sV\u91d1\u623f
p1843
I2
sV\u795e\u7ecf
p1844
I2
sV\u4e0d\u5bb9
p1845
I7
sV\u6548\u7387
p1846
I5
sV\u7a0e\u4ecd
p1847
I3
sV\u89e3\u8bfb
p1848
I9
sV\u5885\u662f
p1849
I2
sV\u9700\u8b66
p1850
I3
sV\u53ca\u4eba
p1851
I3
sV\u56fd\u4fdd
p1852
I2
sV\u4fdd\u503c
p1853
I2
sV\u5e02\u95ee
p1854
I2
sV\u4ea7\u9650
p1855
I4
sV\u624b\u4f4f
p1856
I3
sV\u5c0f\u4f01
p1857
I4
sV\u4ef7\u4f55
p1858
I3
sV\u533a\u623f
p1859
I2
sV\u4e86\u5317
p1860
I2
sV\u4e0d\u5b9c
p1861
I8
sV\u4e1a\u5bb6
p1862
I4
sV\u6e10\u884c
p1863
I3
sV\u5c06\u6210
p1864
I22
sV\u98ce\u9669
p1865
I21
sV\u4e4b\u8ba1
p1866
I3
sV\u8fd8\u6709
p1867
I6
sV\u5e02\u9500
p1868
I2
sV\u591c\u56de
p1869
I2
sV\u9ad8\u8c03
p1870
I3
sV\u7ecf\u8425
p1871
I8
sV\u5bbd\u677e
p1872
I8
sV\u6ce2\u52a8
p1873
I9
sV\u529e\u6cd5
p1874
I9
sV\u7b2c\u516d
p1875
I2
sV\u63a8\u5668
p1876
I3
sV\u597d\u65f6
p1877
I4
sV\u987b\u5927
p1878
I2
sV\u6d89\u5acc
p1879
I2
sV\u4f20\u8bf4
p1880
I3
sV\u4ea7\u592e
p1881
I2
sV\u529b\u697c
p1882
I3
sV\u89c4\u5f8b
p1883
I3
sV\u5177\u5907
p1884
I2
sV\u770b\u61c2
p1885
I2
sV\u4e4b\u6b87
p1886
I2
sV\u6e38\u620f
p1887
I7
sV\u573a\u8d8b
p1888
I3
sV\u540e\u8c03
p1889
I3
sV\u4e0d\u7b49
p1890
I5
sV\u65b0\u6761
p1891
I3
sV\u5927\u8c03
p1892
I4
sV\u65b0\u62db
p1893
I4
sV\u7a0e\u6210
p1894
I4
sV\u5927\u8c0e
p1895
I3
sV\u4ef7\u4f9d
p1896
I4
sV\u4e0b\u9ad8
p1897
I2
sV\u4e0d\u5b58
p1898
I7
sV\u7a0e\u6216
p1899
I4
sV\u7a0e\u6269
p1900
I4
sV\u73b0\u91d1
p1901
I4
sV\u653f\u4e3a
p1902
I2
sV\u8003\u9a8c
p1903
I11
sV\u623f\u8d37
p1904
I26
sV\u662f\u8c03
p1905
I12
sV\u7a81\u7136
p1906
I2
sV\u521a\u9700
p1907
I32
sV\u518d\u6da8
p1908
I4
sV\u9633\u8c0b
p1909
I2
sV\u623f\u8d2d
p1910
I2
sV\u5f00\u53d1
p1911
I143
sV\u660e\u767d
p1912
I2
sV\u91cd\u5929
p1913
I3
sV\u4e4b\u8bf4
p1914
I3
sV\u5b9a\u5e94
p1915
I2
sV\u606f\u8054
p1916
I4
sV\u800c\u8c03
p1917
I2
sV\u4ef7\u8fc7
p1918
I4
sV\u5386\u53f2
p1919
I7
sV\u8fd0\u884c
p1920
I4
sV\u4ef7\u4fc3
p1921
I4
sV\u8df3\u69fd
p1922
I2
sV\u9053\u8fdc
p1923
I5
sV\u65b9\u5e02
p1924
I5
sV\u5931\u671b
p1925
I2
sV\u4e1c\u65b9
p1926
I8
sV\u662f\u653f
p1927
I8
sV\u4ef7\u5c0f
p1928
I3
sV\u653f\u4e0d
p1929
I5
sV\u4f20\u82b1
p1930
I2
sV\u653f\u4e0b
p1931
I9
sV\u4f24\u529b
p1932
I2
sV\u662f\u6539
p1933
I2
sV\u6cab\u8bba
p1934
I5
sV\u56fd\u4f4f
p1935
I5
sV\u4f9d\u636e
p1936
I2
sVsamedomain
p1937
I6
sV\u6709\u636e
p1938
I2
sV\u4ef7\u8fd8
p1939
I15
sV\u5f00\u5200
p1940
I4
sV\u5f0f\u516c
p1941
I4
sV\u5c55\u65b9
p1942
I3
sV\u539f\u5219
p1943
I6
sV\u4ece\u653f
p1944
I3
sV\u88ab\u964d
p1945
I3
sV\u56fd\u4eba
p1946
I13
sV\u62c6\u8fc1
p1947
I21
sV\u73b0\u9000
p1948
I2
sV\u5f00\u5f81
p1949
I28
sV\u4e09\u91cd
p1950
I3
sV\u53ef\u9519
p1951
I2
sV\u5e74\u62a5
p1952
I4
sV\u7a7a\u95f4
p1953
I21
sV\u666f\u4e0b
p1954
I3
sV\u89c2\u5bdf
p1955
I7
sV\u4ef7\u4e3a
p1956
I6
sV\u5927\u6da8
p1957
I8
sV\u952e\u5728
p1958
I5
sV\u56fd\u4e94
p1959
I31
sV\u9ad8\u6da8
p1960
I4
sV\u5e74\u5185
p1961
I11
sV\u5bcc\u6740
p1962
I2
sV\u5de5\u4f5c
p1963
I3
sV\u9996\u5468
p1964
I3
sV\u5f71\u54cd
p1965
I40
sV\u4ef7\u4e0d
p1966
I54
sV\u4ef7\u4e0b
p1967
I62
sV\u4ef7\u4e0a
p1968
I76
sV\u4ef7\u4e09
p1969
I2
sV\u573a\u8c03
p1970
I4
sV\u529b\u4f9d
p1971
I2
sV\u5b58\u6b3e
p1972
I10
sV\u9ad8\u8003
p1973
I2
sV\u5c06\u63a8
p1974
I4
sV\u677e\u8d27
p1975
I3
sV\u5927\u8d8b
p1976
I5
sV\u672a\u89c1
p1977
I3
sV\u70ed\u60c5
p1978
I4
sV\u5ba1\u67e5
p1979
I2
sV\u4f4d\u6ce2
p1980
I3
sV\u8fdc\u8fdc
p1981
I2
sV\u6708\u4e2d
p1982
I3
sV\u8005\u662f
p1983
I3
sV\u725b\u5200
p1984
I5
sV\u5185\u5fc3
p1985
I2
sV\u8f6c\u5411
p1986
I8
sV\u5fae\u7b11
p1987
I2
sV\u4efb\u5fd7
p1988
I39
sV\u53c8\u4e00
p1989
I5
sV\u5185\u6216
p1990
I2
sV\u63a7\u4e0d
p1991
I20
sV\u6d4e\u5708
p1992
I3
sV\u7406\u8bf4
p1993
I2
sV\u8981\u7528
p1994
I4
sV\u4ef7\u4e4b
p1995
I5
sV\u5bcc\u6709
p1996
I2
sV\u5bb6\u8bf4
p1997
I2
sV\u5185\u623f
p1998
I4
sV\u5ffd\u89c6
p1999
I3
sV\u697c\u5e02
p2000
I872
sV\u53cd\u8150
p2001
I8
sV\u578b\u6295
p2002
I2
sV\u4ef7\u518d
p2003
I3
sV\u4ef7\u4e5f
p2004
I6
sV\u5e74\u5927
p2005
I3
sVembed
p2006
I6
sV\u5927\u8dcc
p2007
I17
sV\u4e07\u522b
p2008
I3
sV\u8fd9\u6837
p2009
I2
sV\u65f6\u671f
p2010
I7
sV\u5e9c\u5356
p2011
I3
sV\u95ed\u6f6e
p2012
I2
sV\u5e45\u6709
p2013
I2
sV\u738b\u4e66
p2014
I7
sV\u8dcc\u65e0
p2015
I4
sV\u7206\u53d1
p2016
I4
sV\u5b57\u7ecf
p2017
I3
sV\u507f\u6536
p2018
I5
sV\u7eed\u4e09
p2019
I2
sV\u5728\u94f6
p2020
I3
sV\u52a0\u606f
p2021
I49
sV\u5f02\u770b
p2022
I2
sV\u5728\u54ea
p2023
I2
sV\u5012\u6625
p2024
I2
sV\u4ea7\u53ef
p2025
I2
sV\u5dee\u8ddd
p2026
I3
sV\u63a7\u6ca1
p2027
I7
sV\u53d8\u6210
p2028
I4
sV\u677e\u9650
p2029
I3
sV\u6709\u5c45
p2030
I2
sV\u901a\u9053
p2031
I6
sV\u5f26\u4e0a
p2032
I3
sV\u5c06\u4e0b
p2033
I4
sV\u6613\u7a0e
p2034
I2
sV\u8fd8\u662f
p2035
I30
sV\u5ba2\u89c2
p2036
I3
sV\u884c\u964d
p2037
I3
sV\u5c31\u80fd
p2038
I3
sV\u5927\u602a
p2039
I2
sV\u5356\u5730
p2040
I11
sV\u6216\u5df2
p2041
I2
sV\u4ef7\u4e94
p2042
I3
sV\u5f02\u5730
p2043
I2
sV\u826f\u673a
p2044
I5
sV\u56fd\u4e0d
p2045
I5
sV\u7a3b\u8349
p2046
I9
sV\u80fd\u592a
p2047
I3
sV\u5b8f\u6751
p2048
I2
sV\u64a4\u6751
p2049
I3
sV\u6cd5\u56fd
p2050
I2
sV\u6587\u5316
p2051
I9
sV\u4e1a\u7a0e
p2052
I7
sV\u4ef7\u4ee4
p2053
I3
sV\u5468\u697c
p2054
I2
sV\u5c0f\u4ea7
p2055
I18
sV\u65b0\u9ad8
p2056
I8
sV\u65bd\u6c38
p2057
I46
sV\u5bfb\u627e
p2058
I4
sV\u4e24\u96be
p2059
I5
sV\u6ca1\u4e70
p2060
I2
sV\u4ee3\u623f
p2061
I5
sV\u5468\u5e74
p2062
I4
sV\u6839\u6e90
p2063
I4
sV\u5165\u7834
p2064
I2
sV\u578b\u623f
p2065
I2
sV\u5206\u914d
p2066
I3
sV\u5199\u5b57
p2067
I14
sVcpi
p2068
I8
sV\u7a0e\u4e0e
p2069
I3
sV\u65b9\u5f0f
p2070
I15
sV\u60c5\u7eea
p2071
I4
sV\u538b\u4e0b
p2072
I6
sV\u738b\u4e0a
p2073
I2
sV\u4ef7\u4ecd
p2074
I6
sV\u9690\u5f62
p2075
I3
sV\u8870\u9000
p2076
I3
sV\u538b\u4e0d
p2077
I5
sV\u65e0\u9650
p2078
I3
sV\u6bdb\u5927
p2079
I8
sV\u6c11\u610f
p2080
I2
sV\u4e8e\u8f7c
p2081
I13
sV\u6211\u770b
p2082
I8
sV\u623f\u8c03
p2083
I4
sV\u56fd\u4e4b
p2084
I3
sV\u8ba9\u4eba
p2085
I12
sV\u5546\u548c
p2086
I3
sV\u9650\u4ef7
p2087
I23
sV\u4e86\u5417
p2088
I4
sV\u5927\u52bf
p2089
I6
sV\u6c5f\u6e56
p2090
I4
sV\u5927\u6237
p2091
I2
sV\u592e\u8c03
p2092
I3
sV\u5343\u4e07
p2093
I8
sV\u6210\u623f
p2094
I4
sV\u6536\u662f
p2095
I2
sV\u54ea\u822c
p2096
I4
sV\u8352\u8c2c
p2097
I5
sV\u4ea7\u8425
p2098
I6
sV\u4e8e\u623f
p2099
I18
sV\u5e02\u89c4
p2100
I2
sV\u6709\u5176
p2101
I4
sV\u94b1\u888b
p2102
I2
sV\u96be\u5ea6
p2103
I6
sV\u603b\u7ed3
p2104
I4
sV\u8def\u7ebf
p2105
I2
sV\u7f3a\u9677
p2106
I3
sV\u8c08\u623f
p2107
I4
sV\u4ef7\u6ca1
p2108
I4
sV\u6ce2\u8c03
p2109
I4
sV\u4e16\u4eca
p2110
I2
sV\u8bef\u5224
p2111
I3
sV\u5927\u529b
p2112
I3
sV\u65b0\u653f
p2113
I100
sV\u56fd\u5185
p2114
I6
sV\u662f\u5bf9
p2115
I7
sV\u5148\u89e3
p2116
I2
sV\u573a\u5316
p2117
I8
sV\u54c1\u623f
p2118
I34
sV\u52bf\u6240
p2119
I3
sV\u6269\u5bb9
p2120
I3
sV\u65e0\u89e3
p2121
I3
sV\u72ec\u5584
p2122
I3
sV\u4e09\u4e9a
p2123
I2
sV\u66b4\u6da8
p2124
I31
sV\u4e0d\u5177
p2125
I3
sV\u4e0d\u65ad
p2126
I3
sV\u80fd\u5bfc
p2127
I2
sV\u9762\u79ef
p2128
I7
sV\u964d\u4ef7
p2129
I38
sV\u5b8f\u658c
p2130
I3
sV\u4ef7\u5173
p2131
I2
sV\u9690\u5fe7
p2132
I7
sV\u4ee4\u5bf9
p2133
I2
sV\u8868\u9762
p2134
I2
sV\u5148\u8981
p2135
I4
sV\u94f6\u56db
p2136
I2
sV\u652f\u6491
p2137
I5
sV\u9996\u6b21
p2138
I3
sV\u5dee\u522b
p2139
I3
sV\u4e25\u683c
p2140
I3
sV\u6551\u4e0d
p2141
I3
sV\u5b9a\u6027
p2142
I5
sV\u8870\u6d3e
p2143
I2
sV\u573a\u5341
p2144
I2
sV\u8f6c\u79fb
p2145
I4
sV\u5b9e\u5728
p2146
I3
sV\u5e74\u662f
p2147
I4
sV\u5173\u6ce8
p2148
I10
sV\u5bf9\u8bdd
p2149
I5
sV\u6bd4\u4e0b
p2150
I5
sV\u5ea6\u5c06
p2151
I2
sV\u5951\u7a0e
p2152
I2
sV\u8feb\u4f7f
p2153
I4
sValign
p2154
I6
sV\u5fc5\u8d70
p2155
I2
sV\u4f24\u6c11
p2156
I2
sV\u53d1\u65b0
p2157
I3
sV\u7092\u5bb6
p2158
I2
sV\u901a\u4f4f
p2159
I3
sV\u4e0d\u6562
p2160
I4
sV\u4e2d\u7ecf
p2161
I10
sV\u964d\u6e29
p2162
I8
sV\u4e94\u4e2d
p2163
I2
sV\u4e94\u4e2a
p2164
I5
sV\u4ef7\u51b2
p2165
I2
sV\u4fe1\u65f6
p2166
I2
sV\u524d\u623f
p2167
I10
sV\u8dc3\u6210
p2168
I7
sV\u4e1a\u53d1
p2169
I2
sV\u4f4e\u4ef7
p2170
I4
sV\u73b0\u6709
p2171
I3
sV\u751f\u6839
p2172
I2
sV\u964d\u4e0d
p2173
I5
sV\u915d\u917f
p2174
I4
sV\u65b0\u65b9
p2175
I3
sV\u767b\u5929
p2176
I2
sV\u7a0e\u5c06
p2177
I5
sV\u53cd\u5e94
p2178
I2
sV\u6700\u65b0
p2179
I3
sV\u6768\u5149
p2180
I3
sV\u5343\u4ebf
p2181
I5
sV\u63a8\u884c
p2182
I3
sV\u6027\u9700
p2183
I9
sV\u5931\u8d25
p2184
I11
sV\u5d29\u6e83
p2185
I4
sV\u4f4f\u5730
p2186
I3
sV\u4e94\u4e00
p2187
I3
sV\u6da8\u5e45
p2188
I13
sV\u8dcc\u5e45
p2189
I2
sV\u770b\u6da8
p2190
I3
sV\u4e70\u5f97
p2191
I3
sV\u8be5\u88ab
p2192
I3
sV\u5e76\u672a
p2193
I7
sV\u6d17\u724c
p2194
I4
sV\u5b63\u5ea6
p2195
I28
sV\u8bf4\u660e
p2196
I3
sV\u957f\u4e45
p2197
I2
sV\u4e8c\u4e94
p2198
I4
sV\u518d\u73b0
p2199
I11
sV\u4ebf\u4ea9
p2200
I2
sV\u4e4b\u95f4
p2201
I4
sV\u63a7\u53ef
p2202
I5
sV\u73af\u9996
p2203
I4
sV\u4f1a\u6210
p2204
I4
sV\u63a7\u53ea
p2205
I9
sV\u600e\u4e48
p2206
I3
sV\u5d1b\u8d77
p2207
I3
sV\u4f4e\u4f4d
p2208
I4
sV\u770b\u5f85
p2209
I5
sV\u5e02\u6b63
p2210
I4
sV\u4ef7\u91cd
p2211
I3
sV\u70b9\u57ce
p2212
I2
sV\u5168\u90e8
p2213
I4
sV\u4ea4\u73af
p2214
I2
sV\u83b7\u5f97
p2215
I3
sV\u4e4b\u75d2
p2216
I3
sV\u6682\u65f6
p2217
I5
sV\u4e09\u4e2a
p2218
I6
sV\u8bc4\u4f30
p2219
I4
sV\u901a\u77e5
p2220
I2
sV\u5730\u7968
p2221
I3
sV\u573a\u53d1
p2222
I3
sV\u63a7\u53c8
p2223
I3
sV\u63a7\u5236
p2224
I17
sV\u53e0\u52a0
p2225
I3
sV\u6625\u5929
p2226
I10
sV\u653f\u51fa
p2227
I3
sV\u840e\u7f29
p2228
I3
sV\u4ea7\u653f
p2229
I9
sV\u5f97\u7a0e
p2230
I6
sV\u56f4\u7ed5
p2231
I2
sV\u9ec4\u5149
p2232
I2
sV\u70b9\u5efa
p2233
I5
sV\u7f8e\u4e3d
p2234
I5
sV\u662f\u9ad8
p2235
I7
sV\u4ef7\u503c
p2236
I15
sV\u53cd\u5f39
p2237
I23
sV\u5b9e\u9645
p2238
I3
sV\u79d1\u662f
p2239
I2
sV\u5728\u66ff
p2240
I3
sV\u544a\u697c
p2241
I2
sV\u4ef7\u9006
p2242
I3
sV\u4ec5\u662f
p2243
I5
sV\u4f4e\u8c03
p2244
I2
sV\u6708\u623f
p2245
I9
sV\u589e\u957f
p2246
I24
sV\u5927\u539f
p2247
I15
sV\u65b0\u57ce
p2248
I4
sV\u573a\u5206
p2249
I4
sV\u4f5c\u4e3a
p2250
I6
sV\u4e4b\u540e
p2251
I8
sV\u5468\u520a
p2252
I31
sV\u8fc7\u5ea6
p2253
I5
sV\u8bef\u533a
p2254
I6
sV\u7a00\u7f3a
p2255
I3
sV\u5927\u538b
p2256
I3
sV\u4ef7\u901a
p2257
I2
sV\u7a76\u7adf
p2258
I2
sV\u5b85\u4e0d
p2259
I2
sV\u5e74\u671f
p2260
I6
sV\u4e0d\u786e
p2261
I4
sV\u9053\u8def
p2262
I2
sV\u4e00\u6d3e
p2263
I3
sV\u5229\u9a71
p2264
I2
sV\u7a33\u5b57
p2265
I2
sV\u4ef7\u906d
p2266
I2
sV\u8d37\u8ba9
p2267
I3
sV\u6e90\u56fd
p2268
I3
sV\u8ba9\u7a77
p2269
I2
sV\u8ba9\u57ce
p2270
I2
sV\u518d\u521b
p2271
I2
sV\u5413\u552c
p2272
I3
sV\u5927\u53ef
p2273
I2
sV\u7a0e\u5df2
p2274
I2
sV\u5e74\u6700
p2275
I3
sV\u4e0d\u9700
p2276
I3
sV\u4e00\u5b63
p2277
I3
sV\u903b\u8f91
p2278
I13
sV\u6d88\u4ea1
p2279
I2
sV\u6765\u770b
p2280
I2
sV\u4ea7\u6551
p2281
I3
sV\u590d\u5174
p2282
I4
sV\u7559\u4e0b
p2283
I3
sV\u6027\u56de
p2284
I5
sV\u6761\u4f8b
p2285
I12
sV\u5145\u6ee1
p2286
I6
sV\u6da8\u5f97
p2287
I2
sV\u51b2\u51fb
p2288
I4
sV\u91cf\u56de
p2289
I3
sV\u5f85\u623f
p2290
I8
sV\u552e\u697c
p2291
I2
sV\u5e74\u672b
p2292
I7
sV\u6216\u8bb8
p2293
I5
sV\u63a7\u524d
p2294
I3
sV\u4e1a\u6b63
p2295
I2
sV\u5176\u5b9e
p2296
I6
sV\u4f7f\u623f
p2297
I6
sV\u56e0\u7d20
p2298
I13
sV\u4ef7\u53cc
p2299
I2
sV\u9a6c\u8dc3
p2300
I7
sV\u4e2d\u5fc3
p2301
I5
sV\u4ea7\u65b0
p2302
I11
sV\u671f\u5316
p2303
I3
sV\u75af\u72c2
p2304
I20
sV\u6765\u6700
p2305
I3
sV\u51fa\u56fd
p2306
I3
sV\u51b3\u6218
p2307
I4
sV\u4e5d\u5341
p2308
I2
sV\u9634\u8c0b
p2309
I3
sV\u4e00\u5b9a
p2310
I7
sV\u9a8c\u653f
p2311
I3
sV\u7cae\u98df
p2312
I2
sV\u4e16\u535a
p2313
I3
sV\u7d27\u7f29
p2314
I7
sV\u4f4e\u8ff7
p2315
I7
sV\u9884\u552e
p2316
I27
sV\u7406\u7531
p2317
I22
sV\u57ae\u4e2d
p2318
I4
sV\u5fe7\u8651
p2319
I2
sV\u4ece\u5341
p2320
I2
sV\u6da8\u5927
p2321
I3
sV\u5927\u731c
p2322
I8
sV\u547d\u9898
p2323
I4
sV\u80fd\u628a
p2324
I2
sV\u7763\u5bdf
p2325
I4
sV\u662f\u7a7a
p2326
I5
sV\u4e09\u8f6e
p2327
I8
sV\u6345\u7834
p2328
I4
sV\u8005\u8d8a
p2329
I2
sV\u591a\u6570
p2330
I3
sV\u6709\u6267
p2331
I2
sV\u51b3\u5b9a
p2332
I25
sV\u518d\u52a0
p2333
I4
sV\u5e02\u6625
p2334
I3
sV\u6709\u6210
p2335
I2
sV\u53d8\u5c40
p2336
I5
sV\u4e2d\u7f8e
p2337
I5
sV\u73af\u5883
p2338
I4
sV\u7f51\u7b7e
p2339
I4
sV\u4e0a\u884c
p2340
I3
sV\u666e\u901a
p2341
I4
sV\u673a\u5c06
p2342
I2
sV\u7f6e\u571f
p2343
I5
sV\u8d37\u6b3e
p2344
I15
sV\u4ef7\u90fd
p2345
I4
sV\u76ee\u6295
p2346
I2
sV\u4e5f\u8981
p2347
I7
sV\u63a5\u5e72
p2348
I5
sV\u4e25\u91cd
p2349
I18
sV\u677e\u52a8
p2350
I9
sV\u65f6\u5982
p2351
I2
sV\u9017\u697c
p2352
I2
sV\u5c55\u671b
p2353
I11
sV\u6709\u623f
p2354
I6
sV\u8981\u8ba9
p2355
I7
sV\u964d\u4f4e
p2356
I6
sV\u5b85\u4f9d
p2357
I2
sV\u5e94\u5f53
p2358
I2
sV\u8001\u5730
p2359
I7
sV\u4fc3\u697c
p2360
I3
sV\u6c38\u9752
p2361
I46
sV\u66f4\u4e25
p2362
I5
sV\u7efc\u5408
p2363
I7
sV\u6d88\u7ecf
p2364
I2
sV\u795e\u6298
p2365
I2
sV\u9752\u5e74
p2366
I6
sV\u662f\u79cd
p2367
I3
sV\u4e0d\u8db3
p2368
I3
sV\u8981\u5408
p2369
I3
sV\u4f1a\u91cd
p2370
I2
sV\u5904\u7406
p2371
I3
sV\u8f7b\u4eba
p2372
I5
sV\u4ec0\u4e48
p2373
I34
sV\u6700\u6709
p2374
I2
sV\u4e0b\u5761
p2375
I3
sV\u5927\u4f1a
p2376
I2
sV\u8981\u6da8
p2377
I2
sV\u5173\u4e8e
p2378
I17
sV\u4ea7\u662f
p2379
I5
sV\u8003\u8651
p2380
I6
sV\u7535\u5546
p2381
I4
sV\u53d8\u5f97
p2382
I3
sV\u8d8a\u8c03
p2383
I4
sV\u9010\u6e10
p2384
I3
sV\u4ecd\u9700
p2385
I2
sV\u672b\u65e5
p2386
I3
sV\u65b0\u673a
p2387
I3
sV\u79bb\u5a5a
p2388
I6
sV\u6ca1\u538b
p2389
I2
sV\u6536\u4e0e
p2390
I3
sV\u5e02\u9636
p2391
I2
sV\u623f\u5ba2
p2392
I4
sV\u5730\u7ba1
p2393
I3
sV\u529b\u5927
p2394
I4
sV\u53ea\u6709
p2395
I12
sV\u81a8\u80c0
p2396
I16
sV\u4e09\u6ce2
p2397
I4
sV\u7a0e\u5e94
p2398
I7
sV\u9000\u623f
p2399
I7
sV\u4ea7\u5982
p2400
I2
sV\u57fa\u672c
p2401
I11
sV\u4e1a\u878d
p2402
I5
sV\u53ef\u884c
p2403
I6
sV\u5229\u597d
p2404
I3
sV\u516c\u5f00
p2405
I5
sV\u4e2d\u5c0f
p2406
I11
sV\u65fa\u76db
p2407
I3
sV\u5149\u88d5
p2408
I2
sV\u573a\u6301
p2409
I2
sV\u7406\u56de
p2410
I5
sV\u5efa\u623f
p2411
I5
sV\u5149\u68cd
p2412
I3
sV\u6d4e\u5b66
p2413
I2
sV\u98a0\u8986
p2414
I5
sV\u5927\u70ed
p2415
I2
sV\u6362\u4e00
p2416
I2
sV\u9762\u5bf9
p2417
I8
sV\u4f26\u65af
p2418
I2
sV\u4f24\u4e0d
p2419
I4
sV\u516b\u54e5
p2420
I6
sV\u6001\u5ea6
p2421
I6
sV\u5f0f\u8c03
p2422
I3
sV\u4e86\u767e
p2423
I2
sV\u907f\u98ce
p2424
I2
sV\u61be\u53ca
p2425
I3
sV\u5b9a\u623f
p2426
I16
sV\u5c06\u7ee7
p2427
I6
sV\u6c11\u548c
p2428
I2
sV\u53eb\u597d
p2429
I3
sV\u8fdd\u6cd5
p2430
I5
sV\u5e94\u5c3d
p2431
I4
sV\u623f\u517b
p2432
I9
sV\u89d2\u8272
p2433
I5
sV\u8681\u65cf
p2434
I3
sV\u5e74\u5546
p2435
I2
sV\u8865\u507f
p2436
I5
sV\u623f\u516c
p2437
I6
sV\u7b56\u6216
p2438
I7
sV\u4e0e\u623f
p2439
I18
sV\u4e8c\u623f
p2440
I2
sV\u5de5\u5177
p2441
I3
sV\u9ec4\u91d1
p2442
I14
sV\u6076\u6027
p2443
I3
sV\u88ab\u8bef
p2444
I3
sV\u6d25\u5180
p2445
I3
sV\u6ede\u6da8
p2446
I3
sV\u6d77\u5916
p2447
I3
sV\u517b\u8001
p2448
I19
sV\u6551\u5e02
p2449
I5
sV\u4e00\u591c
p2450
I3
sV\u6216\u6709
p2451
I2
sV\u5e94\u5c06
p2452
I2
sV\u63a7\u518d
p2453
I3
sV\u8272\u4e9a
p2454
I2
sV\u8fd9\u662f
p2455
I2
sV\u8d8b\u7d27
p2456
I3
sV\u6162\u6162
p2457
I4
sV\u4ef7\u53ef
p2458
I6
sV\u4f55\u53bb
p2459
I2
sV\u4ef7\u53ea
p2460
I8
sV\u95ee\u9898
p2461
I58
sV\u5bf9\u697c
p2462
I15
sV\u8150\u8d25
p2463
I5
sV\u5e9c\u4e0d
p2464
I4
sV\u6269\u5927
p2465
I6
sV\u591a\u662f
p2466
I2
sV\u662f\u5927
p2467
I5
sV\u4e07\u8fbe
p2468
I6
sV\u4ef7\u53cd
p2469
I6
sV\u901a\u8d27
p2470
I14
sV\u4e8c\u624b
p2471
I74
sV\u4ef7\u53c8
p2472
I4
sV\u4ef7\u53d6
p2473
I2
sV\u56fd\u5341
p2474
I6
sV\u5584\u5176
p2475
I3
sV\u63a7\u91cd
p2476
I7
sV\u96c6\u4e2d
p2477
I6
sV\u623f\u4e2a
p2478
I2
sV\u5236\u9020
p2479
I3
sV\u5904\u4e8e
p2480
I3
sV\u6c11\u95f4
p2481
I3
sV\u4e0b\u6765
p2482
I11
sV\u592e\u4f01
p2483
I12
sV\u547d\u7a3b
p2484
I5
sV\u4e3b\u5bfc
p2485
I8
sV\u653f\u53ef
p2486
I2
sV\u623f\u70ed
p2487
I2
sV\u53ea\u662f
p2488
I27
sV\u671f\u5185
p2489
I6
sV\u5f62\u52bf
p2490
I6
sV\u8d44\u89d2
p2491
I2
sV\u5929\u5927
p2492
I4
sV\u5b58\u5728
p2493
I18
sV\u4e00\u5927
p2494
I3
sV\u7a0e\u5f81
p2495
I3
sV\u94f6\u884c
p2496
I22
sV\u63a7\u901a
p2497
I3
sV\u5e02\u88ab
p2498
I2
sV\u4e00\u628a
p2499
I4
sV\u529e\u516c
p2500
I3
sV\u516c\u5e73
p2501
I7
sV\u552e\u6b3e
p2502
I7
sV\u6c42\u5173
p2503
I3
sV\u8c6a\u5b85
p2504
I34
sV\u652f\u67f1
p2505
I7
sV\u91cd\u6765
p2506
I4
sV\u4f1a\u51fa
p2507
I3
sV\u653e\u677e
p2508
I7
sV\u8fdb\u519b
p2509
I2
sV\u5730\u9ad8
p2510
I2
sV\u4ef7\u6210
p2511
I5
sV\u535a\u54c1
p2512
I3
sV\u575a\u6301
p2513
I5
sV\u8d2d\u6216
p2514
I4
sV\u4e00\u5957
p2515
I8
sV\u9e3f\u5ca9
p2516
I3
sV\u5e9c\u5fc5
p2517
I2
sV\u7ba1\u5bf9
p2518
I2
sV\u9650\u6da8
p2519
I4
sV\u6b21\u697c
p2520
I5
sV\u9636\u5c42
p2521
I6
sV\u653f\u503c
p2522
I2
sV\u542f\u52a8
p2523
I11
sV\u522b\u8ba9
p2524
I4
sV\u7a0e\u5fc5
p2525
I6
sV\u706b\u70ed
p2526
I3
sV\u8bf1\u56e0
p2527
I2
sV\u54cd\u4e0e
p2528
I2
sV\u73b0\u8c61
p2529
I9
sV\u4ea7\u6743
p2530
I22
sV\u4ea7\u6709
p2531
I4
sV\u538b\u529b
p2532
I15
sV\u8d2d\u623f
p2533
I86
sV\u7545\u60f3
p2534
I3
sV\u9650\u5236
p2535
I3
sV\u96c6\u4f53
p2536
I4
sV\u6cab\u4e0d
p2537
I2
sV\u5c06\u5f15
p2538
I3
sV\u5e01\u5347
p2539
I5
sV\u529b\u589e
p2540
I2
sV\u5c06\u5f00
p2541
I6
sV\u6da8\u4e86
p2542
I2
sV\u94fe\u65ad
p2543
I2
sV\u544a\u8bc9
p2544
I4
sV\u8272\u4f4e
p2545
I3
sVnull
p2546
I6
sV\u4ee5\u5730
p2547
I2
sV\u6548\u63a7
p2548
I2
sV\u662f\u786c
p2549
I3
sV\u4e25\u5389
p2550
I14
sV\u6c79\u6d8c
p2551
I3
sV\u5341\u5927
p2552
I17
sV\u7a0e\u5f00
p2553
I7
sV\u793a\u65b0
p2554
I2
sV\u4f55\u6210
p2555
I3
sV\u5347\u7ea7
p2556
I9
sV\u5f97\u66f4
p2557
I3
sV\u8d8a\u6da8
p2558
I4
sV\u63a7\u8ba9
p2559
I5
sV\u8fdb\u5165
p2560
I49
sV\u9996\u7834
p2561
I2
sV\u4e5f\u8be5
p2562
I2
sV\u79cd\u4eba
p2563
I2
sV\u683c\u4e0b
p2564
I3
sV\u8bbe\u5c06
p2565
I3
sV\u606f\u662f
p2566
I4
sV\u63a7\u50f5
p2567
I3
sV\u5927\u5174
p2568
I3
sV\u5927\u5173
p2569
I3
sV\u9650\u8d37
p2570
I7
sV\u5e02\u884c
p2571
I2
sV\u4e0d\u662f
p2572
I74
sV\u6e05\u7406
p2573
I3
sV\u56fd\u7279
p2574
I3
sV\u4e60\u60ef
p2575
I3
sV\u4e00\u79cd
p2576
I19
sV\u4e4b\u56f0
p2577
I3
sV\u538b\u5236
p2578
I4
sV\u4e08\u6bcd
p2579
I2
sV\u679c\u65ad
p2580
I2
sV\u53d8\u7a7a
p2581
I2
sV\u9650\u8d2d
p2582
I157
sV\u4e1a\u662f
p2583
I7
sV\u535a\u5468
p2584
I31
sV\u4e5f\u8bb8
p2585
I2
sV\u4e07\u4ebf
p2586
I4
sV\u4e1a\u6001
p2587
I2
sV\u843d\u5b9e
p2588
I5
sV\u53ef\u89e3
p2589
I3
sV\u4e3b\u89d2
p2590
I4
sV\u6c11\u751f
p2591
I10
sV\u5b50\u4e00
p2592
I2
sV\u5e73\u8861
p2593
I6
sV\u4e94\u5341
p2594
I2
sV\u5b50\u4e0e
p2595
I2
sV\u5b50\u4e0d
p2596
I5
sV\u573a\u5728
p2597
I5
sV\u7ecf\u7eaa
p2598
I4
sV\u63a7\u5730
p2599
I3
sV\u5927\u96be
p2600
I8
sV\u5f00\u5e55
p2601
I2
sV\u5236\u5730
p2602
I3
sV\u4ecd\u7136
p2603
I7
sV\u5230\u4e86
p2604
I6
sV\u904f\u5236
p2605
I12
sV\u662f\u5317
p2606
I2
sV\u4e07\u4e0d
p2607
I3
sV\u5e02\u4f9b
p2608
I7
sV\u878d\u8d44
p2609
I17
sV\u62a2\u623f
p2610
I4
sV\u5927\u9690
p2611
I4
sV\u5e26\u7ed9
p2612
I3
sV\u5708\u5730
p2613
I6
sV\u573a\u9700
p2614
I3
sV\u5728\u4f55
p2615
I2
sV\u63aa\u65bd
p2616
I6
sV\u4e0a\u6da8
p2617
I120
sV\u63d0\u5347
p2618
I4
sV\u63a7\u9700
p2619
I8
sV\u4f1a\u66f4
p2620
I4
sV\u5305\u5bb9
p2621
I5
sV\u56db\u91cd
p2622
I2
sV\u524d\u51fa
p2623
I2
sV\u6709\u4f4f
p2624
I2
sV\u770b\u8c03
p2625
I3
sV5w1h
p2626
I2
sV\u592e\u884c
p2627
I12
sV\u5e74\u6216
p2628
I5
sV\u5e02\u8fce
p2629
I4
sV\u4f55\u65f6
p2630
I5
sV\u903c\u51fa
p2631
I3
sV\u96f6\u552e
p2632
I3
sV\u5e74\u6211
p2633
I3
sV\u6b21\u4e70
p2634
I2
sV\u786e\u5b9a
p2635
I7
sV\u9020\u5c31
p2636
I4
sV\u5e02\u8fd0
p2637
I3
sV\u5c45\u9ad8
p2638
I3
sV\u5927\u56e0
p2639
I3
sV\u4ef7\u957f
p2640
I3
sV\u660e\u5bcc
p2641
I2
sV\u5185\u5916
p2642
I4
sV\u5e02\u8fd8
p2643
I2
sVpk
p2644
I3
sV\u8d44\u6e90
p2645
I10
sV\u5e02\u8fdb
p2646
I5
sV\u5e74\u623f
p2647
I77
sV\u671f\u76fc
p2648
I2
sV\u8352\u5510
p2649
I4
sV\u4e8e\u864e
p2650
I2
sV\u8d44\u4ea7
p2651
I4
sV\u9700\u5168
p2652
I3
sV\u80c0\u662f
p2653
I3
sV\u5e74\u4ee3
p2654
I3
sV\u5e02\u8ff7
p2655
I2
sV\u8db3\u4ee5
p2656
I3
sV\u5f53\u524d
p2657
I12
sV\u7b56\u5e94
p2658
I2
sV\u8d2d\u653f
p2659
I9
sV\u516c\u793a
p2660
I3
sV\u6001\u52bf
p2661
I3
sV\u5e02\u75af
p2662
I3
sV\u653f\u547d
p2663
I2
sV\u5916\u8d44
p2664
I9
sV\u5c31\u50cf
p2665
I5
sV\u8981\u4ece
p2666
I4
sV\u91d1\u7ba1
p2667
I3
sV\u63a7\u786c
p2668
I2
sV\u5224\u65ad
p2669
I2
sV\u4ea7\u80a1
p2670
I4
sV\u50ac\u751f
p2671
I10
sV\u516c\u79df
p2672
I27
sV\u5f53\u52a1
p2673
I4
sV\u51fa\u53f0
p2674
I27
sV\u56e4\u5730
p2675
I6
sV\u5371\u5bb3
p2676
I3
sV\u8981\u4ee5
p2677
I4
sV\u8d4c\u5c40
p2678
I6
sV\u516c\u79ef
p2679
I21
sV\u5c31\u5e94
p2680
I2
sV\u5229\u5f97
p2681
I3
sV\u5bb6\u5c45
p2682
I3
sV\u56fd\u697c
p2683
I61
sV\u623f\u5747
p2684
I4
sV\u91cf\u5316
p2685
I6
sV\u4e00\u7ebf
p2686
I22
sV\u6784\u5931
p2687
I2
sV\u4f5c\u8bd7
p2688
I2
sV\u6709\u671b
p2689
I11
sV\u51c6\u5316
p2690
I5
sV\u91d1\u5bf9
p2691
I2
sV\u4ef7\u95ee
p2692
I5
sV\u524d\u666f
p2693
I8
sV\u62d0\u70b9
p2694
I12
sV\u662f\u5f00
p2695
I6
sV\u5e02\u4f55
p2696
I3
sV\u7ec8\u4e8e
p2697
I8
sV\u6269\u5f20
p2698
I3
sV\u51fa\u73b0
p2699
I22
sV\u578b\u793e
p2700
I3
sV\u5b9e\u5f88
p2701
I2
sV\u53d6\u4ee3
p2702
I4
sV\u4e70\u5bb6
p2703
I3
sV\u5e78\u798f
p2704
I14
sV\u5883\u4e2d
p2705
I2
sV\u5927\u9650
p2706
I3
sV\u5b9e\u73b0
p2707
I7
sV\u53ef\u4ee5
p2708
I21
sV\u4e0a\u6d77
p2709
I9
sV\u7ed9\u529b
p2710
I24
sV\u8bf8\u591a
p2711
I4
sV\u969c\u6027
p2712
I13
sV\u662f\u5f53
p2713
I3
sV\u56fd\u5546
p2714
I4
sV\u4e3a\u9ad8
p2715
I3
sV\u5341\u5e74
p2716
I23
sV\u8f6e\u623f
p2717
I9
sV\u5927\u964d
p2718
I4
sV\u6de1\u5b9a
p2719
I8
sV\u623f\u9700
p2720
I7
sV\u9ad8\u4e0d
p2721
I4
sV\u611f\u671f
p2722
I3
sV\u7eb8\u8001
p2723
I4
sV\u5e02\u4e8c
p2724
I13
sV\u5728\u4e70
p2725
I5
sV\u4ee4\u4e4b
p2726
I2
sV\u7269\u4ef7
p2727
I17
sV\u738b\u54f2
p2728
I3
sV\u4e0d\u80fd
p2729
I71
sV\u5f00\u4e86
p2730
I2
sV\u5165\u89c2
p2731
I3
sV\u6210\u672c
p2732
I5
sV\u573a\u4e3b
p2733
I2
sV\u5bf9\u4e8c
p2734
I3
sV\u5bf9\u4e8e
p2735
I8
sV\u56de\u5230
p2736
I3
sV\u6709\u66f4
p2737
I6
sV\u6df1\u5ea6
p2738
I7
sV\u8def\u5728
p2739
I2
sV\u5e02\u65b0
p2740
I20
sV\u7d27\u7b8d
p2741
I3
sV\u5fc5\u7136
p2742
I15
sV\u5927\u578b
p2743
I2
sV\u5c06\u4f1a
p2744
I14
sV\u63d0\u524d
p2745
I10
sV\u5728\u4e3a
p2746
I2
sV\u623f\u96be
p2747
I5
sV\u5408\u4f5c
p2748
I3
sV\u5e94\u5bf9
p2749
I8
sV\u5e02\u4ecd
p2750
I3
sV\u8981\u88ab
p2751
I2
sV\u552e\u8d44
p2752
I5
sV\u6291\u623f
p2753
I8
sV\u7f6e\u7387
p2754
I7
sV\u8d23\u4efb
p2755
I5
sV\u5728\u4e2d
p2756
I10
sV\u6ce2\u697c
p2757
I4
sV\u90a3\u4e48
p2758
I5
sV\u4ea4\u8f83
p2759
I2
sV\u5c3d\u5934
p2760
I3
sV\u629b\u552e
p2761
I2
sV\u5728\u4e0a
p2762
I4
sV\u5bf9\u4ed8
p2763
I3
sV\u5e02\u4ef7
p2764
I3
sV\u6cbb\u7406
p2765
I6
sV\u606f\u5bf9
p2766
I5
sV\u65e0\u6cd5
p2767
I12
sV\u5957\u623f
p2768
I20
sV\u5927\u57ce
p2769
I7
sV\u5728\u4e07
p2770
I2
sV\u4efb\u8d4c
p2771
I2
sV\u5316\u5242
p2772
I2
sV\u8d28\u7591
p2773
I3
sV\u5e02\u4e00
p2774
I7
sV\u5730\u4e0d
p2775
I2
sV\u5e02\u4e03
p2776
I3
sV\u5e02\u4e0d
p2777
I17
sV\u8fd8\u5c06
p2778
I4
sV\u5e02\u4e09
p2779
I12
sV\u5e02\u4e0a
p2780
I6
sV\u5e02\u4e0b
p2781
I6
sV\u7ade\u4e89
p2782
I7
sV\u89c1\u5e95
p2783
I4
sV\u4e0e\u653f
p2784
I3
sV\u51b3\u5fc3
p2785
I4
sV\u77ed\u671f
p2786
I18
sV\u8fc7\u7a0b
p2787
I4
sV\u4e0a\u8c03
p2788
I13
sV\u53ca\u697c
p2789
I2
sV\u6d77\u5357
p2790
I4
sV\u751f\u6d3b
p2791
I11
sV\u5165\u624b
p2792
I4
sV\u5f53\u4eca
p2793
I2
sV\u4eca\u5e74
p2794
I15
sV\u5e02\u4e2d
p2795
I11
sV\u4ef7\u548c
p2796
I7
sV\u6210\u679c
p2797
I3
sV\u623f\u9650
p2798
I6
sV\u90a3\u4e9b
p2799
I3
sV\u623f\u964d
p2800
I4
sV\u8bf4\u4e2d
p2801
I3
sV\u529b\u5ea6
p2802
I7
sV\u4ef7\u6f6e
p2803
I4
sV\u90fd\u4e0d
p2804
I5
sV\u884d\u751f
p2805
I2
sV\u5927\u770b
p2806
I3
sV\u5f88\u5927
p2807
I5
sV\u542f\u793a
p2808
I7
sV\u53ea\u80fd
p2809
I16
sV\u827a\u672f
p2810
I3
sV\u4f1a\u6709
p2811
I7
sV\u662f\u5e02
p2812
I6
sV\u6298\u5c04
p2813
I7
sV\u5e74\u5ea6
p2814
I4
sV\u8ffd\u6367
p2815
I3
sV\u79df\u4e0a
p2816
I4
sV\u65b9\u653f
p2817
I20
sV\u57ce\u623f
p2818
I5
sV\u63a7\u76ee
p2819
I4
sV\u5e02\u4e5f
p2820
I3
sV\u82b1\u7a0e
p2821
I2
sV\u987b\u6253
p2822
I2
sV\u7269\u4e1a
p2823
I11
sV\u4e03\u73af
p2824
I3
sV\u59fb\u6cd5
p2825
I3
sV\u5c11\u6301
p2826
I3
sV\u573a\u56de
p2827
I2
sV\u5728\u4e8e
p2828
I10
sV\u8ba9\u5e02
p2829
I2
sV\u4e09\u6b21
p2830
I9
sV\u8bba\u9053
p2831
I2
sV\u8f83\u91cf
p2832
I2
sV\u623f\u95f9
p2833
I4
sV\u8f68\u5236
p2834
I5
sV\u7ad9\u8d70
p2835
I2
sV\u7406\u529e
p2836
I3
sV\u4ef7\u5728
p2837
I4
sV\u738b\u77f3
p2838
I12
sV\u623f\u95ee
p2839
I5
sV\u7ffb\u756a
p2840
I4
sV\u5165\u7a33
p2841
I2
sV\u6211\u4eec
p2842
I18
sV\u770b\u597d
p2843
I6
sV\u529b\u6216
p2844
I2
sV\u96be\u9898
p2845
I13
sV\u4ea7\u6216
p2846
I4
sV\u6b21\u8c03
p2847
I70
sV\u4e5d\u94f6
p2848
I34
sV\u4ea7\u6210
p2849
I3
sV\u5b9e\u5904
p2850
I2
sV\u5e45\u5ea6
p2851
I4
sV\u5192\u9669
p2852
I3
sV\u5e8f\u8fdb
p2853
I2
sV\u4ef7\u771f
p2854
I3
sV\u8305\u4e8e
p2855
I13
sV\u5eb7\u53d1
p2856
I3
sV\u4ef7\u9760
p2857
I3
sV\u5e02\u8dcc
p2858
I4
sV\u9500\u660e
p2859
I2
sV\u538b\u57ae
p2860
I7
sV\u7edd\u671b
p2861
I5
sV\u4e5f\u4e0d
p2862
I9
sV\u4e0b\u623f
p2863
I12
sV\u8be5\u4e0d
p2864
I3
sV\u533b\u4fdd
p2865
I2
sV\u5b9a\u662f
p2866
I3
sV\u4ea6\u6216
p2867
I3
sV\u6d4e\u4e0e
p2868
I3
sV\u65b0\u8c03
p2869
I4
sV\u5f52\u672c
p2870
I3
sV\u6709\u65b0
p2871
I3
sV\u6c60\u5b50
p2872
I2
sV\u4e24\u4f1a
p2873
I4
sV\u522b\u4eba
p2874
I3
sV\u5e73\u6de1
p2875
I3
sV\u56fd\u57ce
p2876
I4
sV\u4ef7\u575a
p2877
I3
sV\u6da8\u9884
p2878
I10
sV\u56fd\u5730
p2879
I11
sV\u519c\u6751
p2880
I4
sV\u4e0a\u6f14
p2881
I12
sV\u767b\u573a
p2882
I2
sV\u8d70\u9ad8
p2883
I3
sV\u4eba\u5927
p2884
I3
sV\u6709\u6548
p2885
I11
sV\u72fc\u6765
p2886
I4
sV\u516c\u5bd3
p2887
I6
sV\u51fa\u51fb
p2888
I7
sV\u53ca\u4f18
p2889
I3
sV\u79d1\u5b66
p2890
I3
sV\u5927\u620f
p2891
I3
sV\u56fd\u5728
p2892
I5
sV\u79df\u8d41
p2893
I18
sV\u600e\u6837
p2894
I3
sV\u4e5f\u662f
p2895
I3
sV\u4ea7\u6295
p2896
I17
sV\u7406\u5236
p2897
I4
sV\u8981\u6ce8
p2898
I3
sV\u56fd\u571f
p2899
I15
sV\u5176\u5c4b
p2900
I3
sV\u606f\u80fd
p2901
I2
sV\u7b56\u662f
p2902
I4
sV\u520a\u7b2c
p2903
I4
sV\u5927\u7406
p2904
I6
sV\u8f66\u5e02
p2905
I4
sV\u8f7b\u8a00
p2906
I3
sV\u52a0\u5927
p2907
I6
sV\u53d1\u662f
p2908
I3
sV\u7ec6\u5219
p2909
I19
sV\u4e0d\u6da8
p2910
I3
sV\u81ea\u5df1
p2911
I14
sV\u5408\u6cd5
p2912
I5
sV\u6f5c\u89c4
p2913
I3
sV\u884c\u60c5
p2914
I5
sV\u91cd\u62f3
p2915
I6
sV\u4e3b\u5e2d
p2916
I2
sV\u6784\u7b51
p2917
I3
sV\u81f4\u623f
p2918
I9
sV\u5bf9\u8d4c
p2919
I4
sV\u969c\u623f
p2920
I61
sV\u7a7a\u8c03
p2921
I10
sV\u5e02\u8d70
p2922
I10
sV\u4e89\u8bae
p2923
I5
sV\u589e\u52a0
p2924
I8
sV\u6211\u4e0d
p2925
I2
sV\u623f\u9500
p2926
I2
sV\u6e29\u603b
p2927
I4
sV\u6d4e\u8f6c
p2928
I3
sV\u51e0\u5e74
p2929
I3
sV\u6cd5\u4e3a
p2930
I3
sV\u5e97\u5f0f
p2931
I4
sV\u800c\u662f
p2932
I10
sV\u81f3\u5c11
p2933
I8
sV\u4e3a\u5927
p2934
I3
sV\u5f53\u7136
p2935
I2
sV\u8bc1\u660e
p2936
I6
sV\u5357\u6e56
p2937
I2
sV\u5e02\u4e3b
p2938
I3
sV\u4f01\u9ad8
p2939
I3
sV\u7b49\u5f85
p2940
I4
sV\u949e\u7968
p2941
I2
sV\u516d\u5927
p2942
I11
sV\u4f01\u4e1a
p2943
I31
sV\u5916\u4ee4
p2944
I6
sV\u63a8\u8fdf
p2945
I2
sV\u6d88\u5546
p2946
I3
sV\u6301\u7eed
p2947
I23
sV\u65b0\u623f
p2948
I22
sV\u7f8e\u597d
p2949
I2
sV\u4fe1\u6258
p2950
I5
sV\u89c2\u671b
p2951
I13
sV\u573a\u5411
p2952
I2
sV\u4e24\u4e2a
p2953
I7
sV\u7528\u623f
p2954
I4
sV\u7ec4\u5408
p2955
I4
sV\u80fd\u6539
p2956
I2
sV\u4e25\u63a7
p2957
I3
sV\u7b56\u4e0d
p2958
I6
sV\u4fc3\u8fdb
p2959
I5
sV\u7a0e\u5bf9
p2960
I3
sV\u7834\u4ea7
p2961
I3
sV\u5927\u95ee
p2962
I4
sV\u56fd\u76ee
p2963
I4
sV\u5c0f\u9633
p2964
I4
sV\u4f3c\u4e4e
p2965
I3
sV\u52a8\u529b
p2966
I8
sV\u9ad8\u95e8
p2967
I2
sV\u5916\u4ea4
p2968
I2
sV\u5e02\u6ce1
p2969
I17
sV\u80cc\u540e
p2970
I18
sV\u4ef7\u964d
p2971
I10
sV\u4e2d\u592e
p2972
I28
sV\u4e4b\u524d
p2973
I7
sV\u623f\u548c
p2974
I3
sV\u5728\u8c03
p2975
I7
sV\u6210\u6548
p2976
I5
sV\u4e4b\u8c1c
p2977
I3
sV\u5e7b\u60f3
p2978
I5
sV\u501f\u9274
p2979
I4
sV\u6d45\u8c08
p2980
I3
sV\u5e02\u8c03
p2981
I164
sV\u53d6\u6d88
p2982
I16
sV\u7b56\u6709
p2983
I3
sV\u5e73\u6c11
p2984
I4
sV\u5411\u597d
p2985
I4
sV\u8981\u8dcc
p2986
I3
sV\u4e2d\u79cb
p2987
I10
sV\u5019\u4e86
p2988
I3
sV\u5730\u5e02
p2989
I14
sV\u52a8\u7269
p2990
I2
sV\u4ef7\u96be
p2991
I22
sV\u542f\u623f
p2992
I2
sV\u8fdc\u4e0d
p2993
I3
sV\u571f\u6539
p2994
I2
sV\u5bcc\u7fc1
p2995
I2
sV\u4ee4\u5c06
p2996
I4
sV\u4e0a\u6700
p2997
I7
sV\u5bf9\u8c03
p2998
I5
sV\u7f8e\u666f
p2999
I3
sV\u6b63\u89c6
p3000
I4
sV\u5927\u9519
p3001
I3
sV\u54c1\u7ebf
p3002
I2
sV\u5c34\u5c2c
p3003
I5
sV\u4ee5\u98de
p3004
I2
sV\u7a98\u5883
p3005
I2
sV\u610f\u5fd7
p3006
I3
sV\u53ef\u8dcc
p3007
I3
sV\u8ba9\u697c
p3008
I6
sV\u4ef7\u76ee
p3009
I4
sV\u4e95\u55b7
p3010
I5
sV\u4eec\u4e0d
p3011
I3
sV\u652f\u6301
p3012
I3
sV\u6765\u623f
p3013
I11
sV\u6df1\u5c42
p3014
I3
sV\u65b0\u62c6
p3015
I5
sV\u5ea6\u653e
p3016
I2
sV\u5b8b\u4e39
p3017
I7
sV\u884c\u4e3a
p3018
I7
sV\u6bb5\u6027
p3019
I5
sV\u6251\u6714
p3020
I2
sV\u5747\u4ef7
p3021
I6
sV\u53d8\u623f
p3022
I2
sV\u52a0\u7801
p3023
I5
sV\u51fa\u7089
p3024
I2
sV\u5730\u5e74
p3025
I2
sV\u5236\u4e86
p3026
I2
sV\u6311\u6218
p3027
I7
sV\u884c\u4e0d
p3028
I3
sV\u56fd\u9645
p3029
I11
sV\u5730\u4ea4
p3030
I2
sV\u4f1a\u653e
p3031
I3
sV\u884c\u6e10
p3032
I3
sV\u4ef7\u56de
p3033
I5
sV\u884c\u4e1a
p3034
I21
sV\u7740\u623f
p3035
I4
sV\u4ef7\u5927
p3036
I16
sV\u4e00\u5200
p3037
I4
sV\u53d1\u8d37
p3038
I3
sV\u5957\u4f4f
p3039
I3
sV\u5fc5\u5c06
p3040
I6
sV\u653e\u6c34
p3041
I2
sV\u56f4\u57ce
p3042
I4
sV\u8d8a\u660e
p3043
I2
sV\u53d1\u8d22
p3044
I2
sV\u7acb\u5fb7
p3045
I5
sV\u5e74\u4e4b
p3046
I6
sV\u4ef7\u5f88
p3047
I4
sV\u5784\u65ad
p3048
I7
sV\u4e48\u90fd
p3049
I3
sV\u4e0d\u8dcc
p3050
I8
sV\u66b4\u9732
p3051
I3
sV\u5e74\u4e70
p3052
I5
sV\u4ea7\u8c03
p3053
I79
sV\u7a0e\u65f6
p3054
I2
sV\u7384\u673a
p3055
I3
sV\u53d7\u8ffd
p3056
I2
sV\u5b57\u697c
p3057
I14
sV\u4f55\u8981
p3058
I2
sV\u5e0c\u671b
p3059
I13
sV\u4e03\u5e74
p3060
I3
sV\u4ee4\u53ef
p3061
I2
sV\u8d70\u5411
p3062
I19
sV\u4ee4\u53ea
p3063
I2
sV\u4e00\u7247
p3064
I2
sV\u56de\u5f52
p3065
I21
sV\u4f1a\u8bae
p3066
I8
sV\u51fb\u697c
p3067
I3
sV\u5e72\u9884
p3068
I16
sV\u5e74\u4e0d
p3069
I6
sV\u5e74\u4e0a
p3070
I5
sV\u5e74\u4e0b
p3071
I4
sV\u4fe1\u8d37
p3072
I14
sV\u5e74\u4e09
p3073
I2
sV\u8bf4\u4e86
p3074
I6
sV\u8dcc\u4e0e
p3075
I2
sV\u53ef\u6253
p3076
I2
sV\u7b2c\u56db
p3077
I4
sV\u5e74\u4e00
p3078
I2
sV\u4e0b\u8c03
p3079
I6
sV\u8dcc\u5e76
p3080
I2
sV\u7092\u5356
p3081
I2
sV\u62a4\u822a
p3082
I2
sV\u9ad8\u7aef
p3083
I7
sV\u5de5\u7a0b
p3084
I3
sV\u6765\u8d8a
p3085
I8
sV\u5730\u51fa
p3086
I3
sV\u4eac\u516c
p3087
I4
sV\u9b54\u5492
p3088
I3
sV\u63a7\u8d8a
p3089
I7
sV\u4e00\u4f4d
p3090
I2
sV\u5e74\u4e2d
p3091
I14
sV\u7ed9\u623f
p3092
I4
sV\u65b0\u6d6a
p3093
I6
sV\u65f6\u5019
p3094
I6
sV\u4e3a\u9650
p3095
I3
sV\u7cbe\u88c5
p3096
I4
sV\u8981\u623f
p3097
I4
sV\u8d77\u53d8
p3098
I2
sV\u52a0\u5761
p3099
I2
sV\u535a\u5f08
p3100
I18
sV\u5e55\u540e
p3101
I2
sV\u6765\u7b2c
p3102
I3
sV\u4e1a\u8d44
p3103
I3
sV\u501f\u58f3
p3104
I2
sV\u9891\u51fa
p3105
I5
sV\u8fce\u6765
p3106
I24
sV\u4e0d\u8d77
p3107
I17
sV\u53ea\u6da8
p3108
I2
sV\u65b0\u8d8b
p3109
I2
sV\u5957\u4fdd
p3110
I4
sV\u578b\u548c
p3111
I2
sV\u4e9a\u8fd0
p3112
I7
sV\u5730\u5757
p3113
I4
sV\u65b9\u6848
p3114
I6
sV\u5165\u4f4e
p3115
I3
sV\u578b\u5546
p3116
I7
sV\u6362\u623f
p3117
I2
sV\u591a\u5730
p3118
I2
sV\u623f\u5b50
p3119
I41
sV\u98de\u6da8
p3120
I5
sV\u4e86\u9ad8
p3121
I3
sV\u5f00\u65b0
p3122
I2
sV\u5b9a\u4e0e
p3123
I2
sV\u575a\u633a
p3124
I3
sV\u4e2d\u56fd
p3125
I285
sV\u6536\u623f
p3126
I4
sV\u6ce1\u6cab
p3127
I74
sV\u5229\u7387
p3128
I14
sV\u529b\u53d1
p3129
I2
sV\u5206\u6653
p3130
I3
sV\u89c2\u8c03
p3131
I10
sV\u8981\u628a
p3132
I4
sV\u6551\u547d
p3133
I5
sV\u4e0e\u8865
p3134
I3
sV\u5de7\u6539
p3135
I3
sV\u6216\u6210
p3136
I12
sV\u5e74\u4e8c
p3137
I3
sV\u8bf4\u4e0d
p3138
I3
sV\u4ea7\u6ce1
p3139
I17
sV\u66f4\u6709
p3140
I3
sV\u8fdb\u7a0b
p3141
I4
sV\u53f6\u6a80
p3142
I3
sV\u53d7\u4f24
p3143
I6
sV\u5e74\u4eba
p3144
I2
sV\u6b3e\u76d1
p3145
I5
sV\u573a\u770b
p3146
I3
sV\u964d\u4e0b
p3147
I3
sV\u6c11\u5e01
p3148
I14
sV\u8d44\u623f
p3149
I4
sV\u5e74\u4eac
p3150
I2
sV\u533a\u57df
p3151
I3
sV\u96be\u964d
p3152
I11
sV\u7a33\u4e2d
p3153
I6
sV\u677e\u7ed1
p3154
I3
sV\u5e94\u518d
p3155
I2
sV\u6b21\u4e0b
p3156
I2
sV\u5206\u6790
p3157
I13
sV\u5f53\u6210
p3158
I2
sV\u5165\u6700
p3159
I2
sV\u89c1\u5206
p3160
I3
sV\u5e73\u6291
p3161
I8
sV\u76f8\u4fe1
p3162
I6
sV\u8c10\u793e
p3163
I2
sV\u53ef\u6301
p3164
I4
sV\u5316\u63ed
p3165
I2
sV\u5e02\u6295
p3166
I8
sV\u4e3a\u5730
p3167
I2
sV\u5728\u6267
p3168
I2
sV\u623f\u7a7a
p3169
I3
sV\u4ee5\u964d
p3170
I2
sV\u4f24\u654c
p3171
I2
sV\u4ecd\u5c06
p3172
I5
sV\u5e74\u8f7b
p3173
I7
sV\u5f53\u9650
p3174
I2
sV\u5c11\u8fd8
p3175
I3
sV\u53ca\u65f6
p3176
I3
sV\u4eba\u89e3
p3177
I2
sV\u80fd\u529b
p3178
I8
sV\u6253\u4e0b
p3179
I2
sV\u5e7f\u544a
p3180
I7
sV\u592e\u653f
p3181
I2
sV\u672a\u5fc5
p3182
I6
sV\u79cd\u751f
p3183
I2
sV\u6697\u793a
p3184
I2
sV\u671f\u7ba1
p3185
I3
sV\u662f\u652f
p3186
I3
sV\u5e74\u4f1a
p3187
I11
sV\u5728\u623f
p3188
I5
sV\u4ea7\u8d70
p3189
I5
sV\u539f\u8457
p3190
I2
sV\u7834\u697c
p3191
I5
sV\u4e0b\u8d2d
p3192
I3
sV\u8d85\u901f
p3193
I2
sV\u4f24\u6539
p3194
I2
sV\u80fd\u6551
p3195
I2
sV\u6807\u4e0d
p3196
I5
sV\u4e0d\u6cbb
p3197
I3
sV\u5165\u4e8c
p3198
I3
sV\u5b85\u662f
p3199
I8
sV\u51fa\u5e08
p3200
I3
sV\u6216\u63a8
p3201
I3
sV\u5448\u73b0
p3202
I3
sV\u5165\u4e86
p3203
I5
sV\u56db\u7ebf
p3204
I10
sV\u57fa\u8c03
p3205
I3
sV\u738b\u9891
p3206
I3
sV\u5f81\u6536
p3207
I17
sV\u5371\u9669
p3208
I9
sV\u8d8a\u6765
p3209
I8
sV\u666e\u67e5
p3210
I3
sV\u5e94\u5728
p3211
I3
sV\u75af\u6da8
p3212
I4
sVhigh
p3213
I6
sV\u626c\u5dde
p3214
I3
sV\u5e02\u6216
p3215
I15
sV\u5e02\u6210
p3216
I11
sV\u5bf9\u623f
p3217
I30
sV\u6751\u6539
p3218
I3
sV\u4e9f\u5f85
p3219
I5
sV\u5bf9\u5546
p3220
I3
sV\u5c1a\u8f89
p3221
I2
sV\u5c06\u8feb
p3222
I2
sV\u9876\u5c42
p3223
I3
sV\u4ef7\u9884
p3224
I8
sV\u79df\u552e
p3225
I2
sV\u4e0b\u8dcc
p3226
I55
sV\u8dcc\u53d6
p3227
I2
sV\u7ebf\u57ce
p3228
I47
sV\u4e00\u73b0
p3229
I5
sV\u5012\u9000
p3230
I5
sV\u5e02\u521a
p3231
I5
sV\u4e94\u6708
p3232
I6
sV\u4ee4\u697c
p3233
I2
sV\u5e02\u623f
p3234
I32
sV\u6253\u4e86
p3235
I2
sV\u5e02\u7834
p3236
I2
sV\u57ce\u4e2d
p3237
I4
sV\u5fae\u4e4e
p3238
I3
sV\u4ec5\u4ec5
p3239
I4
sV\u6da8\u4e4b
p3240
I2
sV\u4e13\u5bb6
p3241
I5
sV\u5b50\u843d
p3242
I2
sV\u4e09\u6708
p3243
I3
sV\u540e\u4e24
p3244
I2
sV\u4e0e\u697c
p3245
I12
sV\u4ef7\u8fde
p3246
I4
sV\u91cf\u5e73
p3247
I2
sV\u50f5\u5c40
p3248
I3
sV\u4e94\u6761
p3249
I37
sV\u79df\u623f
p3250
I41
sV\u6210\u94a2
p3251
I2
sV\u4e0d\u8c03
p3252
I3
sV\u4ef7\u8fdb
p3253
I3
sV\u521a\u6027
p3254
I6
sV\u5e76\u4e0d
p3255
I22
sV\u4f5c\u4f1a
p3256
I2
sV\u623f\u7a0e
p3257
I3
sV\u573a\u9ad8
p3258
I3
sV\u5236\u9ad8
p3259
I5
sV\u4ef7\u98de
p3260
I6
sV\u5c42\u8bbe
p3261
I3
sV\u771f\u6b63
p3262
I17
sV\u7a0e\u8981
p3263
I3
sV\u4eba\u5bf9
p3264
I3
sV\u56fd\u5bb6
p3265
I8
sV\u7406\u5e94
p3266
I4
sV\u63a7\u5931
p3267
I7
sV\u5047\u79bb
p3268
I2
sV\u63a7\u7b2c
p3269
I3
sV\u5f53\u4e0b
p3270
I3
sV\u63a7\u5927
p3271
I9
sV\u5e02\u8fdc
p3272
I2
sV\u4e0b\u4e70
p3273
I4
sV\u5174\u594b
p3274
I3
sV\u5730\u738b
p3275
I31
sV\u4ea7\u4e2d
p3276
I5
sV\u8be5\u4e70
p3277
I3
sV\u9f50\u6da8
p3278
I3
sV\u671b\u518d
p3279
I3
sV\u623f\u79df
p3280
I28
sV\u503c\u5f97
p3281
I17
sV\u4e0d\u8fc7
p3282
I3
sV\u5f88\u96be
p3283
I7
sV\u770b\u5546
p3284
I2
sV\u53ea\u4f1a
p3285
I9
sV\u5728\u5f26
p3286
I3
sV\u4ea7\u4e1a
p3287
I34
sV\u5927\u9884
p3288
I3
sV\u8005\u5bf9
p3289
I3
sV\u662f\u51fa
p3290
I4
sV\u66f4\u65e9
p3291
I2
sV\u4ea7\u4e0e
p3292
I3
sV\u4ea7\u4e0d
p3293
I3
sV\u6267\u884c
p3294
I13
sV\u8c01\u90fd
p3295
I3
sV\u4ea7\u4e09
p3296
I2
sV\u9669\u8d44
p3297
I2
sV\u9ad8\u98ce
p3298
I4
sV\u6548\u679c
p3299
I16
sV\u5c45\u623f
p3300
I2
sV\u5e74\u7ecf
p3301
I4
sV\u522b\u628a
p3302
I6
sV\u80fd\u51fa
p3303
I3
sV\u4e89\u593a
p3304
I3
sV\u4ee4\u51fa
p3305
I2
sV\u89c4\u5219
p3306
I5
sV\u53c2\u52a0
p3307
I2
sV\u6253\u7834
p3308
I3
sV\u89c4\u5212
p3309
I8
sV\u5e74\u8c03
p3310
I8
sV\u8fc1\u6761
p3311
I6
sV\u4e0b\u4e00
p3312
I8
sV\u8fd8\u53ef
p3313
I2
sV\u63ed\u79d8
p3314
I7
sV\u674e\u5c0f
p3315
I14
sV\u4e3b\u529b
p3316
I3
sV\u6237\u578b
p3317
I28
sV\u9769\u662f
p3318
I3
sV\u6700\u4f73
p3319
I11
sV\u9000\u4f11
p3320
I4
sV\u5982\u4e70
p3321
I4
sV\u53ef\u907f
p3322
I3
sV\u5b98\u5546
p3323
I2
sV\u6076\u679c
p3324
I3
sV\u5185\u5730
p3325
I10
sV\u606f\u540e
p3326
I4
sV\u6c42\u662f
p3327
I3
sV\u5730\u8fdd
p3328
I3
sV\u70ed\u9500
p3329
I7
sV\u7834\u623f
p3330
I3
sV\u591a\u4e45
p3331
I3
sV\u9700\u5f88
p3332
I3
sV\u623f\u5974
p3333
I14
sV\u8d70\u56de
p3334
I2
sV\u884c\u8d8b
p3335
I2
sV\u4ea7\u4ea7
p3336
I4
sV\u7f3a\u61be
p3337
I5
sV\u8bba\u623f
p3338
I3
sV\u5927\u5931
p3339
I2
sV\u7ba1\u5236
p3340
I3
sV\u8d85\u53d1
p3341
I3
sV\u9884\u6d4b
p3342
I19
sV\u751f\u623f
p3343
I3
sV\u4e1a\u6f6e
p3344
I3
sV\u662f\u516c
p3345
I3
sV\u4e0d\u4f4f
p3346
I13
sV\u4e0d\u4f4e
p3347
I4
sV\u7ecf\u9002
p3348
I5
sV\u5f85\u89e3
p3349
I3
sV\u63a8\u624b
p3350
I9
sV\u4e0b\u6ed1
p3351
I5
sV\u4eba\u751f
p3352
I8
sV\u4fc3\u623f
p3353
I6
sV\u9f50\u5347
p3354
I5
sV\u60dc\u552e
p3355
I3
sV\u4e00\u70b9
p3356
I6
sV\u5356\u623f
p3357
I8
sV\u4ea7\u4ef7
p3358
I3
sV\u9891\u73b0
p3359
I3
sV\u4f7f\u697c
p3360
I3
sV\u4e4b\u5fe7
p3361
I3
sV\u63a8\u623f
p3362
I5
sV\u4e3a\u54ea
p3363
I4
sV\u5b98\u610f
p3364
I2
sV\u8f6e\u8c03
p3365
I24
sV\u8015\u5730
p3366
I4
sV\u5b9a\u8981
p3367
I4
sV\u6240\u8c13
p3368
I2
sV\u8bc0\u7a8d
p3369
I2
sV\u529b\u91cf
p3370
I2
sV\u80fd\u5168
p3371
I4
sV\u601d\u7ef4
p3372
I3
sV\u53d8\u9769
p3373
I3
sV\u7a0e\u964d
p3374
I3
sV\u518d\u4e0d
p3375
I2
sV\u524d\u884c
p3376
I6
sV\u7bad\u5728
p3377
I3
sV\u5c0f\u5b81
p3378
I14
sV\u53ef\u80fd
p3379
I56
sV\u6df1\u5165
p3380
I3
sV\u603b\u7406
p3381
I14
sV\u4ef7\u4e0e
p3382
I5
sV\u51f8\u663e
p3383
I5
sV\u4ea7\u4ecd
p3384
I5
sV\u63a7\u9762
p3385
I2
sV\u5c0f\u5e45
p3386
I3
sV\u4e0d\u4f1a
p3387
I46
sV\u8d85\u524d
p3388
I3
sV\u5e95\u697c
p3389
I4
sV\u653f\u5bf9
p3390
I2
sV\u8ba9\u65b0
p3391
I2
sV\u6c42\u96c6
p3392
I2
sV\u4e86\u5f00
p3393
I3
sV\u6ee1\u53d8
p3394
I2
sV\u65b0\u4e00
p3395
I24
sV\u8c03\u5b58
p3396
I4
sV\u4ef7\u7a33
p3397
I11
sV\u7b56\u5fae
p3398
I2
sV\u4f01\u878d
p3399
I2
sV\u98de\u4e00
p3400
I3
sV\u9ad8\u660e
p3401
I3
sVquality
p3402
I6
sV\u8d77\u70b9
p3403
I3
sV\u51e0\u5927
p3404
I3
sV\u4e0d\u4ec5
p3405
I3
sV\u5341\u4e07
p3406
I2
sV\u6700\u4e25
p3407
I12
sV\u8425\u9500
p3408
I15
sV\u8dcc\u53bb
p3409
I2
sV\u597d\u5904
p3410
I3
sV\u602a\u80ce
p3411
I3
sV\u65b0\u6a21
p3412
I3
sV\u70ed\u94b1
p3413
I12
sV\u79c1\u52df
p3414
I3
sV\u4ea7\u4f01
p3415
I12
sV\u4e8c\u5341
p3416
I3
sV\u96be\u518d
p3417
I3
sV\u5e45\u53cd
p3418
I3
sV\u91d1\u76d1
p3419
I6
sV\u624d\u521a
p3420
I2
sV\u795e\u8bdd
p3421
I4
sV\u95e8\u69db
p3422
I3
sV\u5e02\u80cc
p3423
I2
sV\u8282\u524d
p3424
I5
sV\u5148\u6291
p3425
I3
sV\u63a7\u987b
p3426
I2
sV\u6210\u697c
p3427
I7
sV\u76ee\u6807
p3428
I12
sV\u5982\u4f55
p3429
I26
sV\u6216\u8fce
p3430
I3
sV\u6e10\u8fd1
p3431
I3
sV\u4e8e\u697c
p3432
I6
sV\u4e0e\u5426
p3433
I3
sV\u817e\u8baf
p3434
I2
sV\u91d1\u5468
p3435
I7
sV\u7eed\u56de
p3436
I3
sV\u914b\u957f
p3437
I3
sV\u4f4e\u6536
p3438
I3
sV\u5242\u731b
p3439
I2
sV\u4e0d\u4e86
p3440
I17
sV\u6c11\u4f17
p3441
I4
sV\u653f\u4fc3
p3442
I3
sV\u6765\u4e86
p3443
I7
sV\u56fd\u9ad8
p3444
I3
sV\u548c\u8c10
p3445
I3
sV\u53d8\u76f8
p3446
I4
sV\u8d37\u5e74
p3447
I2
sV\u662f\u50bb
p3448
I3
sV\u5f52\u5e02
p3449
I3
sV\u5a5a\u59fb
p3450
I3
sV\u5357\u623f
p3451
I2
sV\u623f\u9884
p3452
I5
sV\u51fa\u4e86
p3453
I2
sV\u653f\u5b81
p3454
I2
sV\u7406\u8005
p3455
I2
sV\u5c06\u63d0
p3456
I3
sV\u5907\u91d1
p3457
I13
sV\u4e8c\u6b21
p3458
I64
sV\u56e0\u5728
p3459
I3
sV\u5fae\u8c03
p3460
I6
sV\u534e\u5b85
p3461
I3
sV\u67ff\u5b50
p3462
I2
sV\u4e0d\u4e70
p3463
I8
sV\u8ffd\u8d23
p3464
I2
sV\u8fdb\u4eba
p3465
I2
sV\u969c\u4f4f
p3466
I2
sV\u6e38\u5730
p3467
I6
sV\u5df2\u7ecf
p3468
I24
sV\u4e92\u52a8
p3469
I3
sV\u65e0\u623f
p3470
I3
sV\u5730\u5230
p3471
I5
sV\u6d88\u8d39
p3472
I8
sV\u5730\u5236
p3473
I4
sV\u5b59\u5b8f
p3474
I3
sV\u505a\u597d
p3475
I5
sV\u56db\u7c7b
p3476
I4
sV\u653f\u7b56
p3477
I160
sV\u6536\u8d8a
p3478
I2
sV\u5927\u591a
p3479
I2
sV\u767d\u9886
p3480
I3
sV\u4e0d\u4e50
p3481
I3
sV\u5c06\u5728
p3482
I8
sV\u8bc4\u8bba
p3483
I2
sV\u4ee3\u9650
p3484
I2
sV\u4f20\u7edf
p3485
I7
sV\u51cf\u5c11
p3486
I4
sV\u6765\u4e2d
p3487
I4
sV\u5efa\u8bae
p3488
I21
sV\u5c11\u6d32
p3489
I4
sV\u522b\u6307
p3490
I3
sV\u6765\u4e24
p3491
I4
sV\u5feb\u4e50
p3492
I2
sV\u91d1\u94fe
p3493
I6
sV\u5546\u8981
p3494
I4
sV\u5efa\u8bbe
p3495
I28
sV\u5531\u6da8
p3496
I2
sV\u6765\u4e34
p3497
I8
sV\u5b50\u662f
p3498
I4
sV\u548c\u5546
p3499
I2
sV\u7ed3\u5a5a
p3500
I5
sV\u5546\u69b7
p3501
I4
sV\u9762\u524d
p3502
I5
sV\u5b85\u5c06
p3503
I2
sV\u4e0d\u4e0b
p3504
I11
sV\u4ea7\u8fd8
p3505
I3
sV\u4e0a\u626c
p3506
I7
sV\u907f\u514d
p3507
I6
sV\u987a\u4fbf
p3508
I2
sV\u8054\u8c0a
p3509
I3
sV\u7a33\u79df
p3510
I2
sV\u4e1a\u4e3b
p3511
I4
sV\u8981\u8f6c
p3512
I3
sV\u4ea7\u8fce
p3513
I4
sV\u76d8\u6574
p3514
I4
sV\u4ef7\u9ad8
p3515
I16
sV\u6731\u6653
p3516
I2
sV\u4e70\u5356
p3517
I4
sV\u4e5f\u6709
p3518
I3
sV\u4e2d\u524d
p3519
I5
sV\u7136\u662f
p3520
I4
sV\u6b3e\u5229
p3521
I4
sV\u623f\u5feb
p3522
I2
sV\u4e8b\u4ef6
p3523
I5
sV\u8be5\u5982
p3524
I3
sV\u96be\u52a0
p3525
I2
sV\u610f\u5473
p3526
I4
sV\u65f6\u673a
p3527
I16
sV\u6210\u4e2d
p3528
I3
sV\u5730\u8d22
p3529
I11
sV\u4e0d\u89c1
p3530
I3
sV\u54c1\u6807
p3531
I3
sV\u505c\u623f
p3532
I5
sV\u8fc7\u53bb
p3533
I3
sV\u77db\u76fe
p3534
I13
sV\u535a\u5ba2
p3535
I4
sV\u4e0b\u884c
p3536
I9
sV\u5927\u5e86
p3537
I8
sV\u62ac\u5934
p3538
I4
sV\u6309\u63ed
p3539
I5
sV\u4e4b\u5916
p3540
I4
sV\u673a\u4f1a
p3541
I6
sV\u516c\u5171
p3542
I3
sV\u5165\u6bd4
p3543
I3
sV\u623f\u5fc5
p3544
I5
sV\u65b9\u6cd5
p3545
I5
sV\u8a00\u623f
p3546
I3
sV\u6bd4\u623f
p3547
I4
sV\u8bf4\u6cd5
p3548
I3
sV\u8c28\u9632
p3549
I12
sV\u80c0\u4e0b
p3550
I4
sV\u5546\u4e1a
p3551
I78
sV\u5927\u5efa
p3552
I4
sV\u573a\u5f62
p3553
I3
sV\u4eba\u53e3
p3554
I5
sV\u6709\u4ea7
p3555
I2
sV\u6da8\u52a8
p3556
I3
sV\u534a\u6708
p3557
I2
sV\u9774\u5b50
p3558
I3
sV\u4ef7\u5e76
p3559
I3
sV\u4f4e\u623f
p3560
I7
sV\u5012\u95ed
p3561
I3
sV\u5546\u4e0d
p3562
I4
sV\u5730\u95f2
p3563
I4
sV\u66a7\u6627
p3564
I3
sV\u4e0d\u8981
p3565
I40
sV\u8b66\u60d5
p3566
I19
sV\u76db\u5bb4
p3567
I4
sV\u6362\u91cf
p3568
I3
sV\u8fd8\u8d37
p3569
I3
sV\u4e0a\u65ec
p3570
I3
sV\u6709\u94b1
p3571
I3
sV\u52bf\u4e0d
p3572
I3
sV\u5f0a\u7aef
p3573
I3
sV\u770b\u5317
p3574
I2
sV\u52bf\u4e0a
p3575
I2
sV\u5fc5\u987b
p3576
I32
sV\u63a5\u53d7
p3577
I4
sV\u4ea7\u884c
p3578
I10
sV\u5730\u95ee
p3579
I3
sV\u5316\u5bbd
p3580
I3
sV\u4e66\u57ce
p3581
I6
sV\u5de5\u8d44
p3582
I4
sV\u5b9a\u548c
p3583
I2
sV\u7b56\u8c03
p3584
I9
sV\u5e02\u6700
p3585
I10
sV\u8ba9\u623f
p3586
I17
sV\u52bf\u96be
p3587
I2
sV\u518d\u4e0a
p3588
I2
sV\u5fc3\u7406
p3589
I5
sV\u65e0\u788d
p3590
I2
sV\u771f\u4e0d
p3591
I2
sV\u6210\u4ea4
p3592
I54
sV\u964d\u623f
p3593
I42
sV\u9632\u9488
p3594
I2
sV\u7531\u4e4b
p3595
I3
sV\u4e0d\u5747
p3596
I3
sV\u975e\u5e38
p3597
I4
sV\u6df1\u5733
p3598
I6
sV\u4f9d\u7136
p3599
I20
sV\u53f2\u65b0
p3600
I2
sV\u7ba1\u7406
p3601
I17
sV\u8ba9\u6211
p3602
I4
sV\u900f\u89c6
p3603
I3
sV\u540e\u5e02
p3604
I3
sV\u5e38\u6001
p3605
I7
sV\u524d\u4e09
p3606
I4
sV\u5e02\u672a
p3607
I6
sV\u662f\u9760
p3608
I2
sV\u56db\u5b63
p3609
I15
sV\u6210\u4e86
p3610
I10
sV\u8fdb\u623f
p3611
I3
sV\u91d1\u7387
p3612
I10
sV\u5927\u8dc3
p3613
I4
sV\u7269\u6743
p3614
I2
sV\u5927\u5e0c
p3615
I2
sV\u90fd\u6709
p3616
I2
sV\u80fd\u770b
p3617
I2
sV\u5962\u671b
p3618
I6
sV\u4e00\u76f4
p3619
I2
sV\u590d\u6027
p3620
I3
sV\u4f1a\u4e0a
p3621
I4
sV\u4f1a\u4e0b
p3622
I4
sV\u4e09\u6210
p3623
I4
sV\u6da8\u5230
p3624
I3
sV\u94b1\u591a
p3625
I3
sV\u5c1a\u9700
p3626
I3
sV\u9650\u623f
p3627
I4
sV\u662f\u571f
p3628
I7
sV\u70ed\u5356
p3629
I3
sV\u524d\u4e70
p3630
I4
sV\u65b0\u89c4
p3631
I9
sV\u884c\u653f
p3632
I16
sV\u535a\u7b56
p3633
I28
sV\u623f\u5730
p3634
I458
sV\u8fc7\u70ed
p3635
I2
sV\u7092\u4f5c
p3636
I3
sV\u8d44\u662f
p3637
I2
sV\u80fd\u9760
p3638
I3
sV\u51f6\u731b
p3639
I3
sV\u6050\u6016
p3640
I2
sV\u662f\u5728
p3641
I15
sV\u4e4b\u79cb
p3642
I2
sV\u4e0a\u53bb
p3643
I3
sV\u7cfb\u7edf
p3644
I5
sV\u6216\u662f
p3645
I7
sV\u4fdd\u62a4
p3646
I3
sV\u5927\u5e45
p3647
I11
sV\u54c1\u4ef7
p3648
I2
sV\u5357\u65b0
p3649
I2
sV\u89e3\u623f
p3650
I2
sV\u4ea4\u6613
p3651
I15
sV\u662f\u5730
p3652
I3
sV\u5168\u6c11
p3653
I3
sV\u5bfc\u81f4
p3654
I16
sV\u8bf4\u8bdd
p3655
I5
sV\u623f\u5efa
p3656
I22
sV\u8bde\u751f
p3657
I3
sV\u4e4e\u5176
p3658
I3
sV\u662f\u7978
p3659
I2
sV\u578b\u57ce
p3660
I5
sV\u4f4f\u623f
p3661
I84
sV\u5e02\u6696
p3662
I2
sV\u7f8e\u623f
p3663
I2
sV\u6709\u4ec0
p3664
I2
sV\u671f\u5f85
p3665
I12
sV\u670b\u53cb
p3666
I3
sV\u5c06\u518d
p3667
I9
sV\u4e0b\u697c
p3668
I9
sV\u5168\u4f1a
p3669
I3
sV\u4ef7\u5c06
p3670
I19
sV\u6d82\u8d26
p3671
I3
sV\u628a\u623f
p3672
I6
sVcbd
p3673
I3
sV\u5929\u771f
p3674
I3
sV\u6491\u7740
p3675
I2
sV\u8d22\u5bcc
p3676
I9
sV\u7387\u4e0b
p3677
I4
sV\u5347\u503c
p3678
I7
sV\u73b0\u623f
p3679
I5
sV\u6218\u7565
p3680
I15
sV\u96be\u538b
p3681
I3
sV\u66b4\u5229
p3682
I12
sV\u4e00\u573a
p3683
I14
sV\u75c5\u6839
p3684
I2
sV\u6765\u88ad
p3685
I5
sV\u63a7\u5e76
p3686
I5
sV\u7231\u5c14
p3687
I4
sV\u8981\u6709
p3688
I12
sV\u7126\u70b9
p3689
I3
sV\u5dee\u5f02
p3690
I5
sV\u7eff\u8272
p3691
I8
sV\u54c1\u4f4f
p3692
I8
sV\u4e39\u4e39
p3693
I7
sV\u7a0e\u51fa
p3694
I4
sV\u5730\u94c1
p3695
I3
sV\u4fdd\u6301
p3696
I5
sV\u6709\u4e8c
p3697
I2
sV\u573a\u5e74
p3698
I2
sV\u573a\u5e76
p3699
I3
sV\u8d8b\u52bf
p3700
I30
sV\u5b85\u6210
p3701
I3
sV\u573a\u5e73
p3702
I2
sV\u4e00\u9762
p3703
I4
sV\u5e7f\u5dde
p3704
I4
sV\u6709\u4eba
p3705
I5
sV\u7aef\u7269
p3706
I2
sV\u7eed\u70ed
p3707
I2
sV\u5c06\u51fa
p3708
I5
sV\u79df\u66b4
p3709
I5
sV\u5e9c\u5c06
p3710
I2
sV\u4e86\u4e2d
p3711
I5
sV\u91cf\u5347
p3712
I4
sV\u5927\u5fc3
p3713
I2
sV\u4f5c\u7528
p3714
I5
sV\u6cab\u7834
p3715
I3
sV\u9b3c\u57ce
p3716
I3
sV\u524d\u8fd8
p3717
I4
sV\u524d\u8fdb
p3718
I3
sV\u589e\u5927
p3719
I3
sV\u662f\u964d
p3720
I5
sV\u52a0\u5267
p3721
I9
sV\u5236\u5ea6
p3722
I24
sV\u7ba1\u7528
p3723
I2
sV\u5e02\u660e
p3724
I6
sV\u5230\u671f
p3725
I5
sVvs
p3726
I2
sV\u65f6\u95f4
p3727
I11
sV\u6708\u4e8c
p3728
I9
sV\u90fd\u662f
p3729
I13
sV\u4ef7\u731b
p3730
I3
sV\u56f4\u527f
p3731
I3
sV\u63a7\u5e95
p3732
I3
sV\u63a7\u5e94
p3733
I13
sV\u91cd\u8981
p3734
I13
sV\u521d\u73b0
p3735
I3
sV\u653f\u540e
p3736
I6
sV\u63d0\u9ad8
p3737
I11
sV\u5e02\u662f
p3738
I4
sV\u4ea7\u5e7f
p3739
I3
sV\u60ac\u5ff5
p3740
I3
sV\u9884\u793a
p3741
I8
sV\u6ce8\u610f
p3742
I8
sV\u5927\u5f00
p3743
I3
sV\u8bd5\u63a2
p3744
I2
sV\u8d1f\u8d23
p3745
I3
sV\u5927\u5f0a
p3746
I2
sV\u6050\u614c
p3747
I11
sV\u80dc\u5229
p3748
I7
sV\u4e00\u4f1a
p3749
I3
sV\u4f01\u9000
p3750
I4
sV\u73b0\u62d0
p3751
I3
sV\u518d\u5ea6
p3752
I7
sV\u519c\u6c11
p3753
I7
sV\u4e70\u529b
p3754
I3
sV\u957f\u6548
p3755
I2
sV\u6709\u4e09
p3756
I3
sV\u6709\u4e0b
p3757
I2
sV\u4f01\u5012
p3758
I3
sV\u5e02\u7a33
p3759
I4
sV\u5b85\u6295
p3760
I3
sV\u6709\u4e00
p3761
I10
sV\u7ec8\u6781
p3762
I6
sV\u8fdb\u5f0f
p3763
I2
sV\u8d44\u672c
p3764
I6
sV\u573a\u7ecf
p3765
I6
sV\u6708\u4efd
p3766
I7
sV\u672c\u8f6e
p3767
I9
sV\u8c01\u5728
p3768
I4
sV\u52a1\u4e4b
p3769
I4
sV\u523a\u6fc0
p3770
I8
sV\u8ddd\u79bb
p3771
I4
sV\u9003\u79bb
p3772
I3
sV\u5415\u8c0f
p3773
I2
sV\u5229\u76ca
p3774
I7
sV\u8001\u623f
p3775
I3
sV\u5230\u6765
p3776
I14
sV\u80fd\u964d
p3777
I8
sV\u8054\u5408
p3778
I3
sV\u623f\u5e02
p3779
I146
sV\u8fc7\u5269
p3780
I3
sV\u4e0d\u8be5
p3781
I11
sV\u96be\u70b9
p3782
I3
sV\u77e5\u8bc6
p3783
I2
sV\u9700\u8003
p3784
I2
sV\u505a\u4e86
p3785
I2
sV\u81ea\u7531
p3786
I5
sV\u8521\u9633
p3787
I3
sV\u65b0\u5730
p3788
I3
sV\u987e\u95ee
p3789
I3
sV\u4ef7\u5e73
p3790
I3
sV\u4e3b\u52a8
p3791
I2
sV\u552e\u662f
p3792
I3
sV\u65b0\u4f4e
p3793
I4
sV\u4e8e\u8c03
p3794
I5
sV\u56de\u5934
p3795
I4
sV\u8fd1\u671f
p3796
I6
sVtransparent
p3797
I6
sV\u6210\u8c03
p3798
I3
sV\u987b\u8981
p3799
I5
sV\u738b\u5fd7
p3800
I8
sV\u7531\u6765
p3801
I2
sV\u623f\u5c4b
p3802
I10
sV\u8fc7\u51ac
p3803
I4
sV\u7ed3\u4e0e
p3804
I5
sV\u8be5\u662f
p3805
I3
sV\u5728\u653f
p3806
I5
sV\u5c81\u6708
p3807
I3
sV\u9648\u4e91
p3808
I5
sV\u6d45\u6790
p3809
I2
sV\u6e56\u91ce
p3810
I2
sV\u4f9b\u6c42
p3811
I8
sV\u7eed\u53d1
p3812
I3
sV\u4fe1\u606f
p3813
I7
sV\u4ef7\u5f71
p3814
I4
sV\u6d6e\u4e91
p3815
I6
sV\u6709\u8d85
p3816
I2
sV\u4e0d\u8bb8
p3817
I3
sV\u653f\u5e9c
p3818
I100
sV\u5e02\u65e0
p3819
I8
sV\u6708\u697c
p3820
I5
sV\u4e24\u6708
p3821
I3
sV\u5c06\u8981
p3822
I2
sV\u5c81\u672b
p3823
I4
sV\u4e8e\u7a33
p3824
I3
sV\u4ea7\u4e5f
p3825
I2
sV\u4e4b\u7b56
p3826
I3
sV\u4ef7\u9f50
p3827
I9
sV\u9ad8\u5cf0
p3828
I3
sV\u63ed\u793a
p3829
I2
sV\u7834\u89e3
p3830
I4
sV\u5f81\u623f
p3831
I18
sV\u8bba\u662f
p3832
I3
sV\u4e0e\u4e2d
p3833
I5
sV\u6e90\u5934
p3834
I3
sV\u4e0d\u6b62
p3835
I3
sV\u662f\u5546
p3836
I4
sV\u8fd8\u9700
p3837
I4
sV\u4e8c\u4e2a
p3838
I3
sV\u653f\u5e72
p3839
I7
sV\u9a6c\u62c9
p3840
I3
sV\u529b\u4e0b
p3841
I3
sV\u4f73\u9009
p3842
I4
sV\u5730\u9707
p3843
I5
sV\u660e\u663e
p3844
I14
sV\u671f\u5c06
p3845
I3
sV\u53d8\u5316
p3846
I12
sV\u5373\u5c06
p3847
I12
sV\u7a0e\u5236
p3848
I3
sV\u5c06\u5230
p3849
I5
sV\u4e0e\u9ad8
p3850
I3
sV\u4e0e\u4e0d
p3851
I3
sV\u4e8c\u4e09
p3852
I20
sV\u5e74\u9996
p3853
I3
sV\u51fa\u79df
p3854
I4
sV\u529b\u4e0d
p3855
I2
sV\u5f97\u5173
p3856
I3
sV\u56fd\u5f0f
p3857
I11
sV\u5e02\u653f
p3858
I6
sV\u571f\u91cd
p3859
I3
sV\u7f6a\u6076
p3860
I2
sV\u516c\u53f8
p3861
I6
sV\u672b\u697c
p3862
I3
sV\u4eca\u751f
p3863
I2
sV\u63a7\u5df2
p3864
I9
sV\u5927\u5c71
p3865
I2
sV\u4eac\u57ce
p3866
I17
sV\u964d\u606f
p3867
I10
sV\u91d1\u51fa
p3868
I2
sV\u6708\u4e0a
p3869
I4
sV\u5ea6\u52a0
p3870
I3
sV\u660e\u667a
p3871
I2
sV\u6210\u6ce1
p3872
I2
sV\u4e2a\u4f2a
p3873
I3
sV\u51c6\u5907
p3874
I19
sV\u573a\u5df2
p3875
I2
sV\u4ef7\u5fc5
p3876
I10
sV\u5e02\u5f71
p3877
I6
sV\u7248\u623f
p3878
I6
sV\u70ed\u95f9
p3879
I3
sV\u8272\u623f
p3880
I2
sV\u8d70\u52bf
p3881
I17
sV\u5730\u9762
p3882
I2
sV\u5b8c\u5584
p3883
I3
sV\u56db\u5927
p3884
I21
sV\u5e02\u51fa
p3885
I4
sV\u5927\u5c40
p3886
I3
sV\u5b9a\u4f4d
p3887
I8
sV\u60d5\u623f
p3888
I5
sV\u5218\u6749
p3889
I4
sV\u6570\u5b57
p3890
I4
sV\u63a7\u5c31
p3891
I4
sV\u4f2a\u547d
p3892
I3
sV\u901a\u80c0
p3893
I44
sV\u53cc\u8f68
p3894
I6
sV\u5f53\u5934
p3895
I5
sV\u51fa\u8def
p3896
I10
sV\u521b\u5386
p3897
I3
sV\u6797\u5c11
p3898
I4
sV\u738b\u7ef4
p3899
I2
sV\u653e\u5bbd
p3900
I3
sV\u6572\u54cd
p3901
I3
sV\u627f\u8ba4
p3902
I3
sV\u5feb\u901f
p3903
I5
sV\u573a\u5c31
p3904
I2
sV\u8d27\u81a8
p3905
I14
sV\u5e74\u697c
p3906
I44
sV\u6027\u589e
p3907
I5
sV\u573a\u5c06
p3908
I9
sV\u800c\u4e0d
p3909
I6
sV\u4e2d\u5168
p3910
I3
sV\u7a0e\u7387
p3911
I3
sV\u4e50\u89c2
p3912
I7
sV\u63a7\u5c06
p3913
I11
sV\u56fd\u5e86
p3914
I13
sV\u8d2d\u4e70
p3915
I11
sV\u521d\u6b21
p3916
I3
sV\u6709\u6ce2
p3917
I2
sV\u70ed\u70b9
p3918
I7
sV\u5f00\u623f
p3919
I3
sV\u7a0e\u53ea
p3920
I5
sV\u843d\u5730
p3921
I10
sV\u4e2a\u4eba
p3922
I7
sV\u610f\u5728
p3923
I5
sV\u9762\u76ee
p3924
I3
sV\u51b2\u7a81
p3925
I2
sV\u5f88\u53d7
p3926
I3
sV\u5e02\u4e70
p3927
I2
sV\u503a\u52a1
p3928
I4
sV\u4eba\u90fd
p3929
I4
sV\u4e0d\u516c
p3930
I3
sV\u4ea7\u6b63
p3931
I4
sV\u5b9a\u4f1a
p3932
I3
sV\u8fd0\u8425
p3933
I4
sV\u7edd\u4e0d
p3934
I5
sV\u7834\u88c2
p3935
I2
sV\u7136\u4f1a
p3936
I2
sV\u4ea7\u4e4b
p3937
I2
sV\u5999\u836f
p3938
I2
sV\u56de\u987e
p3939
I5
sV\u6ee1\u6708
p3940
I7
sV\u5316\u65f6
p3941
I2
sV\u4e03\u5927
p3942
I5
sV\u9053\u7406
p3943
I7
sV\u6708\u8c6a
p3944
I3
sV\u98ce\u6c34
p3945
I3
sV\u56fd\u7ecf
p3946
I13
sV\u697c\u4e0d
p3947
I3
sV\u4e00\u5e74
p3948
I4
sV\u5165\u65b0
p3949
I2
sV\u697c\u4ef7
p3950
I24
sV\u5f88\u5371
p3951
I3
sV\u4e86\u7b97
p3952
I6
sV\u5951\u673a
p3953
I4
sV\u79ef\u6781
p3954
I6
sV\u4e2d\u91ca
p3955
I3
sV\u76d1\u7ba1
p3956
I16
sV\u6b21\u65b0
p3957
I4
sV\u80fd\u5426
p3958
I7
sV\u884c\u96be
p3959
I2
sV\u5c3d\u5feb
p3960
I5
sV\u7591\u95ee
p3961
I4
sV\u8d2d\u4ee4
p3962
I80
sV\u516b\u5927
p3963
I8
sV\u707e\u96be
p3964
I2
sV\u623f\u5c55
p3965
I4
sV\u8c01\u6765
p3966
I3
sV\u5b58\u8bf8
p3967
I2
sV\u672c\u8d28
p3968
I11
sV\u4f55\u4e0d
p3969
I4
sV\u5efa\u4fdd
p3970
I3
sV\u72d9\u51fb
p3971
I4
sV\u4ef7\u5e94
p3972
I3
sV\u8f6e\u697c
p3973
I6
sV\u5408\u4f53
p3974
I3
sV\u6210\u8d8b
p3975
I3
sV\u9002\u623f
p3976
I5
sV\u90e8\u7ea6
p3977
I3
sV\u660e\u6717
p3978
I5
sV\u4ef7\u7ee7
p3979
I5
sV\u5b50\u6237
p3980
I3
sV\u4e8c\u8f6e
p3981
I2
sV\u662f\u7406
p3982
I3
sV\u5927\u8bd5
p3983
I3
sV\u623f\u5c31
p3984
I4
sV\u573a\u73b0
p3985
I2
sV\u6781\u610f
p3986
I4
sV\u4e3a\u51fa
p3987
I2
sV\u770b\u70b9
p3988
I3
sV\u571f\u8d44
p3989
I3
sV\u5f3a\u538b
p3990
I2
sV\u62f3\u51fa
p3991
I2
sV\u662f\u5426
p3992
I12
sV\u8001\u592a
p3993
I3
sV\u7b56\u8f6c
p3994
I4
sV\u4ef7\u7ec8
p3995
I2
sV\u4e30\u6167
p3996
I4
sV\u5e94\u5148
p3997
I3
sV\u4ef7\u7edf
p3998
I4
sV\u6f58\u77f3
p3999
I28
sV\u4ef7\u7edd
p4000
I3
sV\u52a0\u901f
p4001
I4
sV\u6b3e\u51c6
p4002
I9
ssV\u8d22\u7ecf\u65b0\u95fb
p4003
(dp4004
V\u4e3a\u4e2d
p4005
I28
sV\u7f13\u6162
p4006
I25
sV\u7a33\u56de
p4007
I19
sV\u5e9c\u5173
p4008
I20
sV\u51fa\u6765
p4009
I122
sV\u7b2c\u4e8c
p4010
I142
sV\u4e0b\u5468
p4011
I424
sV\u6682\u505c
p4012
I30
sV\u5e73\u5b89
p4013
I74
sV\u6536\u9633
p4014
I67
sV\u6536\u9634
p4015
I60
sV\u575a\u5b9a
p4016
I41
sV\u4e3a\u4e3b
p4017
I156
sV\u4ec5\u6709
p4018
I27
sV\u56fe\u5f62
p4019
I19
sV\u662f\u6bd4
p4020
I31
sV\u56de\u5230
p4021
I41
sV\u6392\u5217
p4022
I23
sV\u7b51\u5e95
p4023
I21
sV\u4e3a\u4e0a
p4024
I54
sV\u4e3a\u4e0b
p4025
I24
sV\u8d38\u6982
p4026
I25
sV\u8c08\u5230
p4027
I70
sV\u4e3a\u4e00
p4028
I36
sV\u7eed\u6da8
p4029
I22
sV\u53d1\u751f
p4030
I130
sV\u70b9\u8fd9
p4031
I28
sV\u4e2a\u91cd
p4032
I45
sV\u4e8e\u521b
p4033
I35
sV\u7ebf\u4e4b
p4034
I66
sV\u6709\u53ef
p4035
I86
sV\u8425\u4e1a
p4036
I33
sV\u6b64\u5916
p4037
I20
sV\u662f\u8bf4
p4038
I60
sV\u91cd\u542f
p4039
I90
sV\u662f\u8bf1
p4040
I19
sV\u80fd\u8bf4
p4041
I32
sV\u8fd8\u8981
p4042
I36
sV\u4e2d\u4e00
p4043
I38
sV\u4e24\u5929
p4044
I127
sV\u4e2d\u4e0d
p4045
I25
sV\u4e24\u5927
p4046
I114
sV\u4e24\u5e74
p4047
I22
sV\u5c31\u4f1a
p4048
I50
sV\u8fc7\u8fd9
p4049
I20
sV\u6df1\u8bc1
p4050
I48
sV\u6b63\u5e38
p4051
I122
sV\u96be\u4ee5
p4052
I67
sV\u770b\u4f3c
p4053
I31
sV\u5173\u7cfb
p4054
I53
sV\u9488\u5bf9
p4055
I34
sV\u4e8e\u524d
p4056
I24
sV\u662f\u8ba9
p4057
I28
sV\u4e0a\u79fb
p4058
I33
sV\u4ece\u6280
p4059
I46
sV\u8dcc\u5bb6
p4060
I26
sV\u7535\u8bdd
p4061
I25
sV\u76d8\u7ee7
p4062
I51
sV\u7ebf\u4e0e
p4063
I26
sV\u7ebf\u4e0d
p4064
I32
sV\u76c8\u5229
p4065
I72
sV\u7ebf\u4e0b
p4066
I57
sV\u7ebf\u4e0a
p4067
I149
sV\u52bf\u5206
p4068
I113
sV\u6d89\u53ca
p4069
I20
sV\u6da8\u4e86
p4070
I78
sV\u56de\u6765
p4071
I39
sV\u4e4c\u9f99
p4072
I386
sV\u5b9a\u505a
p4073
I33
sV\u7b2c\u4e00
p4074
I317
sV\u5c5e\u671f
p4075
I29
sV\u76d8\u5e02
p4076
I33
sV\u4e70\u8fdb
p4077
I24
sV\u540e\u52bf
p4078
I30
sV\u65e9\u95f4
p4079
I25
sV\u7b2c\u4e09
p4080
I60
sV\u5b98\u5458
p4081
I20
sV\u65b0\u7586
p4082
I33
sV\u5ba1\u6838
p4083
I31
sV\u5e45\u840e
p4084
I23
sV\u6307\u5927
p4085
I47
sV\u4e24\u79cd
p4086
I42
sV\u70b9\u4f4d
p4087
I122
sV\u4e3a\u4e86
p4088
I83
sV\u662f\u6b63
p4089
I33
sV\u6280\u672f
p4090
I423
sV\u5176\u662f
p4091
I117
sV\u6da8\u4e4b
p4092
I23
sV\u4ee5\u8fd9
p4093
I38
sV\u8d27\u5e02
p4094
I45
sV\u8d27\u5e01
p4095
I66
sV\u79c1\u5bb6
p4096
I30
sV\u60c5\u51b5
p4097
I298
sV\u5bb6\u591a
p4098
I34
sV\u8ba9\u5e02
p4099
I34
sV\u4e94\u5e02
p4100
I22
sV\u5e76\u975e
p4101
I36
sV\u540d\u535a
p4102
I126
sV\u9ad8\u624b
p4103
I21
sV\u540e\u626c
p4104
I31
sV\u672f\u4e0a
p4105
I74
sV\u660e\u786e
p4106
I88
sV\u7a84\u5e45
p4107
I127
sV\u7bc7\u535a
p4108
I20
sV\u9879\u76ee
p4109
I26
sV\u4e3a\u4ee3
p4110
I47
sV\u4e91\u8ba1
p4111
I23
sV\u52bf\u9707
p4112
I35
sV\u65b9\u503a
p4113
I35
sV\u4e4b\u65f6
p4114
I25
sV\u5165\u573a
p4115
I19
sV\u4e86\u4ec0
p4116
I31
sV\u4e4b\u65c5
p4117
I56
sV\u65b0\u95fb
p4118
I82
sV\u6536\u76ca
p4119
I96
sV\u4e3a\u4ec0
p4120
I123
sV\u4e48\u6837
p4121
I34
sV\u5f31\u52bf
p4122
I101
sV\u63a2\u5e95
p4123
I67
sV\u7eed\u8d70
p4124
I29
sV\u4ea7\u54c1
p4125
I92
sV\u6da8\u4e0d
p4126
I43
sV\u6536\u76d8
p4127
I773
sV\u65e5\u70b9
p4128
I38
sV\u5411\u4e0b
p4129
I185
sV\u5411\u4e0a
p4130
I313
sV\u4e0d\u9519
p4131
I90
sV\u611f\u5230
p4132
I21
sV\u5757\u65b9
p4133
I54
sV\u949f\u751f
p4134
I40
sV\u540e\u5728
p4135
I41
sV\u5f80\u5f80
p4136
I101
sV\u91cc\u9762
p4137
I33
sV\u76ee\u524d
p4138
I498
sV\u5f88\u957f
p4139
I19
sV\u6708\u521d
p4140
I44
sV\u6536\u5728
p4141
I50
sV\u5927\u529b
p4142
I33
sV\u6700\u540e
p4143
I268
sV\u53d7\u76ca
p4144
I31
sV\u901f\u51b2
p4145
I20
sV\u8fc7\u4e86
p4146
I71
sV\u56fd\u80a1
p4147
I190
sV\u4e3a\u5e02
p4148
I28
sV\u672c\u539f
p4149
I43
sV\u673a\u5236
p4150
I36
sV\u7b49\u6982
p4151
I44
sV\u4f1a\u53d1
p4152
I38
sV\u957f\u80a1
p4153
I57
sV\u4e5f\u597d
p4154
I22
sV\u4e00\u6b21
p4155
I201
sV\u4f46\u5176
p4156
I51
sV\u4ea7\u751f
p4157
I66
sV\u6613\u7b56
p4158
I73
sV\u94fe\u63a5
p4159
I140
sV\u52a0\u4ed3
p4160
I30
sV\u7ebf\u4f4d
p4161
I33
sV\u8868\u660e
p4162
I36
sV\u661f\u5ea7
p4163
I476
sV\u4e1a\u94f6
p4164
I47
sV\u4e0d\u5f3a
p4165
I25
sV\u65e5\u5b50
p4166
I39
sV\u4eba\u4eec
p4167
I60
sV\u906d\u9047
p4168
I30
sV\u4f53\u73b0
p4169
I63
sV\u4e2a\u70b9
p4170
I96
sV\u6295\u673a
p4171
I47
sV\u53cd\u8f6c
p4172
I26
sV\u5b89\u94f6
p4173
I19
sV\u5c31\u4e1a
p4174
I20
sV\u5360\u636e
p4175
I20
sV\u76d8\u5fc5
p4176
I56
sV\u5c31\u4e00
p4177
I24
sV\u4e70\u4e00
p4178
I45
sV\u5feb\u4e50
p4179
I23
sV\u79cd\u8d70
p4180
I45
sV\u4ee5\u4e3a
p4181
I21
sV\u52bf\u80a1
p4182
I36
sV\u7ecf\u8bf4
p4183
I25
sV\u5c31\u4e0d
p4184
I91
sV\u62c9\u5347
p4185
I186
sV\u4ee5\u4e0d
p4186
I23
sV\u53cb\u53c2
p4187
I23
sV\u6790\u63d0
p4188
I55
sV\u770b\u4e00
p4189
I36
sV\u6b63\u5f0f
p4190
I59
sV\u591a\u4e2a
p4191
I25
sV\u4ee5\u4e0b
p4192
I80
sV\u4ee5\u4e0a
p4193
I124
sV\u4f4e\u5f00
p4194
I488
sV\u770b\u4e0a
p4195
I46
sV\u4ee5\u4eca
p4196
I20
sV\u6781\u5ea6
p4197
I19
sV\u770b\u4e0d
p4198
I41
sV\u5e86\u957f
p4199
I38
sV\u6570\u4eba
p4200
I22
sV\u4e3b\u8981
p4201
I310
sV\u505a\u51fa
p4202
I36
sV\u5b9e\u662f
p4203
I25
sV\u4e3a\u4f55
p4204
I83
sV\u56fe\u5e03
p4205
I36
sV\u677f\u4e2a
p4206
I28
sV\u660e\u5929
p4207
I136
sV\u6b27\u6d32
p4208
I48
sV\u7eed\u8c03
p4209
I30
sV\u76d8\u5f00
p4210
I27
sV\u516b\u6708
p4211
I95
sV\u7ecf\u8bb2
p4212
I22
sV\u80a1\u5c31
p4213
I22
sV\u4ea4\u6613
p4214
I847
sV\u5b54\u6d69
p4215
I106
sV\u671f\u6307
p4216
I57
sV\u672a\u6765
p4217
I204
sV\u6307\u8dcc
p4218
I56
sV\u603b\u4f53
p4219
I106
sV\u4eba\u4e0d
p4220
I21
sV\u70b9\u4e4b
p4221
I158
sV\u7ebf\u5904
p4222
I22
sV\u5f62\u6001
p4223
I118
sV\u63a5\u4e0b
p4224
I62
sV\u80a1\u5c06
p4225
I26
sV\u5e73\u7a33
p4226
I55
sV\u4e9b\u4eba
p4227
I19
sV\u53cc\u91cd
p4228
I19
sV\u4eba\u4e00
p4229
I21
sV\u914d\u5408
p4230
I51
sV\u610f\u89c1
p4231
I57
sV\u53ea\u80a1
p4232
I39
sV\u6539\u53d8
p4233
I101
sV\u70b9\u4e5f
p4234
I27
sV\u4e00\u6bb5
p4235
I89
sV\u6da8\u540e
p4236
I34
sV\u6e05\u6670
p4237
I23
sV\u51c6\u666e
p4238
I84
sV\u4eba\u4e13
p4239
I30
sV\u9762\u79ef
p4240
I28
sV\u91d1\u4ef7
p4241
I44
sV\u53d1\u94f6
p4242
I46
sV\u4e8c\u516b
p4243
I52
sV\u5144\u5f1f
p4244
I501
sV\u4e2d\u8be6
p4245
I29
sV\u7b80\u5355
p4246
I90
sV\u5348\u5e02
p4247
I26
sV\u5bf9\u4e0d
p4248
I19
sV\u672c\u535a
p4249
I151
sV\u76c8\u7387
p4250
I57
sV\u70b9\u4e0b
p4251
I32
sV\u70b9\u4e0a
p4252
I63
sV\u70b9\u4e0d
p4253
I44
sV\u770b\u4e86
p4254
I49
sV\u9519\u8bef
p4255
I37
sV\u52a0\u4e0a
p4256
I67
sV\u4e0d\u540c
p4257
I104
sV\u6e38\u8d44
p4258
I30
sV\u8be5\u5982
p4259
I36
sV\u6709\u5229
p4260
I69
sV\u6570\u51fa
p4261
I33
sV\u65e5\u5b9e
p4262
I52
sV\u901a\u5e38
p4263
I23
sV\u4e3a\u8fd9
p4264
I47
sV\u683c\u5c40
p4265
I293
sV\u9000\u51fa
p4266
I65
sV\u679c\u662f
p4267
I28
sV\u6c11\u670b
p4268
I57
sV\u53d7\u963b
p4269
I20
sV\u4e48\u8d70
p4270
I20
sV\u6307\u6da8
p4271
I64
sV\u4e0d\u77e5
p4272
I80
sV\u867d\u7136
p4273
I370
sV\u540e\u80a1
p4274
I29
sV\u535a\u6587
p4275
I143
sV\u4e0a\u5c31
p4276
I31
sV\u6781\u9650
p4277
I27
sV\u6709\u91cd
p4278
I21
sV\u5165\u4e0d
p4279
I43
sV\u5bb6\u5bb6
p4280
I110
sV\u7ecf\u5f00
p4281
I25
sV\u8005\u63d0
p4282
I45
sV\u5c06\u4e8e
p4283
I21
sV\u90a3\u4e9b
p4284
I52
sV\u6709\u51fa
p4285
I54
sV\u6570\u9ad8
p4286
I19
sV\u9047\u5230
p4287
I29
sV\u5ba3\u5e03
p4288
I44
sV\u4e1c\u897f
p4289
I31
sV\u4ecd\u6709
p4290
I33
sV\u6a21\u5f0f
p4291
I135
sV\u597d\u8005
p4292
I56
sV\u4e0b\u9650
p4293
I47
sV\u4e00\u6837
p4294
I100
sV\u6709\u51e0
p4295
I21
sV\u4e00\u6839
p4296
I125
sV\u9053\u6307
p4297
I121
sV\u671f\u80a1
p4298
I28
sV\u677f\u4e0a
p4299
I57
sV\u91c7\u53d6
p4300
I28
sV\u4e0d\u52a8
p4301
I22
sV\u4f26\u94dc
p4302
I19
sV\u95f4\u7a97
p4303
I38
sV\u540e\u671f
p4304
I21
sV\u8981\u5927
p4305
I25
sV\u662f\u8981
p4306
I65
sV\u7387\u9884
p4307
I28
sV\u540e\u80fd
p4308
I21
sV\u672c\u6708
p4309
I38
sV\u6307\u4e00
p4310
I20
sV\u624d\u80fd
p4311
I64
sV\u6da8\u4e00
p4312
I26
sV\u6307\u4e0b
p4313
I149
sV\u6307\u4e0a
p4314
I169
sV\u7eed\u8fdb
p4315
I19
sV\u5728\u591a
p4316
I19
sV\u4e2a\u539f
p4317
I22
sV\u6d77\u8bc1
p4318
I24
sV\u5a92\u4f53
p4319
I86
sV\u963b\u529b
p4320
I112
sV\u8272\u7ebf
p4321
I23
sV\u5728\u5916
p4322
I34
sV\u5f88\u5927
p4323
I97
sV\u91d1\u6d41
p4324
I38
sV\u5927\u80c6
p4325
I71
sV\u6b65\u5b9e
p4326
I98
sV\u7a81\u7136
p4327
I76
sV\u5ea6\u4e0a
p4328
I61
sV\u5ea6\u4e0b
p4329
I31
sV\u7ebf\u8c03
p4330
I24
sV\u5ea6\u4e0d
p4331
I41
sV\u4e0e\u5229
p4332
I72
sV\u8d35\u5dde
p4333
I46
sV\u76d8\u5c0f
p4334
I58
sV\u521b\u4e1a
p4335
I1873
sV\u76d8\u5c06
p4336
I45
sV\u653e\u51fa
p4337
I22
sV\u5bf9\u5927
p4338
I85
sV\u91cd\u89c6
p4339
I25
sV\u6709\u5148
p4340
I40
sV\u65e5\u5fae
p4341
I38
sV\u5e95\u90e8
p4342
I84
sV\u56e0\u4e3a
p4343
I420
sV\u5c06\u4e0a
p4344
I20
sV\u80a1\u5f3a
p4345
I30
sV\u5408\u9884
p4346
I21
sV\u5f88\u6e05
p4347
I20
sV\u80a1\u5f00
p4348
I19
sV\u4e09\u7c7b
p4349
I28
sV\u5e02\u5927
p4350
I244
sV\u4e09\u5e74
p4351
I20
sV\u6c47\u91d1
p4352
I23
sV\u9999\u6e2f
p4353
I19
sV\u65e5\u535a
p4354
I23
sV\u6709\u5173
p4355
I57
sV\u91d1\u671f
p4356
I67
sV\u7ed3\u5408
p4357
I32
sV\u663e\u5f97
p4358
I39
sV\u8def\u7ebf
p4359
I38
sV\u53cd\u653b
p4360
I30
sV\u66b4\u6da8
p4361
I75
sV\u671f\u6027
p4362
I24
sV\u76d8\u5c31
p4363
I39
sV\u90e8\u5206
p4364
I166
sV\u63d0\u53ca
p4365
I20
sV\u770b\u6da8
p4366
I49
sV\u4e0d\u5728
p4367
I21
sV\u5b66\u4e60
p4368
I73
sV\u66b4\u8dcc
p4369
I109
sV\u6c11\u8425
p4370
I34
sV\u6307\u4e8b
p4371
I59
sV\u8272\u67f1
p4372
I23
sV\u4e0d\u786e
p4373
I28
sV\u949f\u56fe
p4374
I137
sV\u4ece\u800c
p4375
I19
sV\u5b9e\u65bd
p4376
I44
sV\u6765\u770b
p4377
I325
sV\u4e00\u53e5
p4378
I42
sV\u63a5\u8fd1
p4379
I72
sV\u6570\u65e5
p4380
I25
sV\u5916\u9ad8
p4381
I28
sV\u76d8\u4ef7
p4382
I37
sV\u8fde\u7eed
p4383
I315
sV\u540e\u8981
p4384
I21
sV\u5c31\u6da8
p4385
I21
sV\u91cd\u56de
p4386
I27
sV\u540e\u5982
p4387
I20
sV\u62a5\u9053
p4388
I91
sV\u5927\u9762
p4389
I20
sV\u5ba1\u8ba1
p4390
I53
sV\u4e0b\u9762
p4391
I36
sV\u7eed\u4e86
p4392
I21
sV\u7b97\u4e00
p4393
I39
sV\u91d1\u8c37
p4394
I33
sV\u606f\u6d88
p4395
I33
sV\u6211\u5bf9
p4396
I27
sV\u4ecd\u662f
p4397
I27
sV\u6d4e\u5b66
p4398
I26
sV\u5728\u9ad8
p4399
I25
sV\u7c7b\u80a1
p4400
I66
sV\u5bc6\u96c6
p4401
I28
sV\u4e00\u4e9b
p4402
I240
sV\u6307\u4f4e
p4403
I34
sV\u5218\u5b50
p4404
I41
sV\u8d70\u4f4e
p4405
I58
sV\u4e0a\u7a81
p4406
I62
sV\u56db\u64cd
p4407
I22
sV\u5f3a\u963b
p4408
I22
sV\u9634\u7ebf
p4409
I194
sV\u5347\u6d6a
p4410
I21
sV\u56de\u843d
p4411
I591
sV\u540c\u4e00
p4412
I26
sV\u4e43\u72d7
p4413
I51
sV\u4e0d\u6562
p4414
I29
sV\u5f15\u53d1
p4415
I87
sV\u4e5d\u6708
p4416
I92
sV\u8d2d\u91cd
p4417
I28
sV\u8ba1\u7b97
p4418
I105
sV\u8bc1\u5238
p4419
I392
sV\u53cc\u65b9
p4420
I31
sV\u4e86\u672c
p4421
I25
sV\u800c\u521b
p4422
I42
sV\u5929\u8fd9
p4423
I25
sV\u548c\u4e2d
p4424
I30
sV\u4e86\u4e09
p4425
I23
sV\u524d\u51e0
p4426
I43
sV\u63a2\u7d22
p4427
I60
sV\u5468\u56db
p4428
I369
sV\u65e5\u5927
p4429
I146
sV\u6307\u4f1a
p4430
I41
sV\u6548\u5e94
p4431
I120
sV\u725b\u5e02
p4432
I224
sV\u901f\u62c9
p4433
I35
sV\u5165\u5e02
p4434
I22
sV\u5173\u5fc3
p4435
I44
sV\u4f1a\u5728
p4436
I44
sV\u4e0d\u96be
p4437
I20
sV\u8425\u94f6
p4438
I31
sV\u5c06\u8fce
p4439
I20
sV\u7b56\u7565
p4440
I399
sV\u6709\u70b9
p4441
I87
sV\u8fd8\u53ef
p4442
I21
sV\u4e0e\u53cb
p4443
I51
sV\u4e0b\u9707
p4444
I21
sV\u67e5\u770b
p4445
I478
sV\u52aa\u529b
p4446
I23
sV\u6d77\u5357
p4447
I19
sV\u7ed9\u5927
p4448
I42
sV\u8305\u53f0
p4449
I136
sV\u6da8\u8d8b
p4450
I38
sV\u9632\u6b62
p4451
I25
sV\u65e5\u591a
p4452
I26
sV\u76d8\u5df2
p4453
I29
sV\u6027\u64cd
p4454
I53
sV\u6291\u540e
p4455
I30
sV\u6587\u5f52
p4456
I121
sV\u5c06\u4f1a
p4457
I63
sV\u7eed\u4e09
p4458
I24
sV\u7eed\u4e0b
p4459
I72
sV\u7eed\u4e0a
p4460
I111
sV\u9884\u671f
p4461
I374
sV\u677f\u4e00
p4462
I27
sV\u94b1\u6548
p4463
I30
sV\u5199\u4e86
p4464
I26
sV\u5468\u80a1
p4465
I32
sV\u62db\u884c
p4466
I23
sV\u65e9\u76d8
p4467
I806
sV\u8f6e\u756a
p4468
I20
sV\u80a1\u5e02
p4469
I1368
sV\u53cc\u53cc
p4470
I89
sV\u5149\u5934
p4471
I38
sV\u7edc\u6e38
p4472
I29
sV\u778e\u8499
p4473
I52
sV\u5f62\u6210
p4474
I322
sV\u6e29\u548c
p4475
I33
sV\u770b\u6cd5
p4476
I87
sV\u4eba\u6c14
p4477
I49
sV\u5927\u6743
p4478
I43
sV\u4f4e\u4ef7
p4479
I49
sV\u7ea2\u76d8
p4480
I86
sV\u4eba\u6c11
p4481
I64
sV\u5149\u5927
p4482
I426
sV\u4f18\u52bf
p4483
I23
sV\u7834\u5e74
p4484
I19
sV\u4f53\u8d70
p4485
I22
sV\u519b\u5de5
p4486
I32
sV\u751f\u5b58
p4487
I19
sV\u653e\u91cf
p4488
I211
sV\u5f53\u65f6
p4489
I66
sV\u6ce2\u5feb
p4490
I27
sV15k
p4491
I24
sV\u4e09\u6b21
p4492
I21
sV\u884c\u52a8
p4493
I36
sV\u51e0\u5e74
p4494
I47
sV\u7a7a\u5934
p4495
I100
sV\u677f\u5e02
p4496
I31
sV\u4f01\u4e1a
p4497
I197
sV\u5f53\u65e5
p4498
I36
sV\u62c9\u51fa
p4499
I29
sV\u5f00\u8d70
p4500
I20
sV\u9752\u6625
p4501
I488
sV\u573a\u60c5
p4502
I20
sV\u8c03\u63a7
p4503
I46
sV\u4f5c\u7cfb
p4504
I34
sV\u54ea\u91cc
p4505
I59
sV\u4eec\u4e00
p4506
I22
sV\u6bb5\u6027
p4507
I27
sV\u75b2\u8f6f
p4508
I31
sV\u5728\u9884
p4509
I19
sV\u6708\u65b0
p4510
I23
sV\u663e\u793a
p4511
I233
sV\u5230\u5e95
p4512
I83
sV\u4eba\u8ba4
p4513
I30
sV\u4e00\u4e0b
p4514
I225
sV\u8d44\u7ec4
p4515
I46
sV\u4f53\u5236
p4516
I21
sV\u6210\u529f
p4517
I116
sV\u6536\u5230
p4518
I38
sV\u5468\u672b
p4519
I183
sV\u4e2a\u95ee
p4520
I54
sV\u5e74\u524d
p4521
I39
sV\u5177\u6709
p4522
I50
sV\u601d\u8003
p4523
I74
sV\u968f\u65f6
p4524
I42
sV\u5929\u4e24
p4525
I63
sV\u662f\u8fd1
p4526
I23
sV\u4e0d\u51fa
p4527
I35
sV\u5ba2\u6240
p4528
I122
sV\u5468\u671f
p4529
I249
sV\u4e00\u4e24
p4530
I24
sV\u53cd\u5e94
p4531
I44
sV\u4e00\u4e2a
p4532
I1222
sV\u5728\u5f53
p4533
I30
sV\u5f53\u6210
p4534
I42
sV\u84dd\u7b79
p4535
I248
sV\u70b9\u8bc4
p4536
I255
sV\u8bb8\u591a
p4537
I44
sV\u5929\u4e0b
p4538
I47
sV\u5929\u4e0a
p4539
I92
sV\u5929\u4e0d
p4540
I23
sV\u5c31\u6b64
p4541
I19
sV\u5176\u4ed6
p4542
I95
sV\u7968\u5e02
p4543
I24
sV\u8361\u76d8
p4544
I38
sV\u5468\u6700
p4545
I24
sV\u4e00\u4e3e
p4546
I46
sV\u8361\u56de
p4547
I56
sV\u4f5c\u7b56
p4548
I172
sV\u56fd\u65f6
p4549
I480
sV\u53d1\u9175
p4550
I20
sV\u8457\u4e0b
p4551
I22
sV\u5224\u5929
p4552
I51
sV\u957f\u65f6
p4553
I26
sV\u8dcc\u4e2d
p4554
I55
sV\u79d8\u5bc6
p4555
I483
sV\u6307\u6807
p4556
I243
sV\u76d8\u9ad8
p4557
I77
sV\u4ee5\u540e
p4558
I43
sV\u4ece\u8fd9
p4559
I24
sV\u5065\u5eb7
p4560
I50
sV\u9501\u5b9a
p4561
I23
sV\u63d0\u632f
p4562
I21
sV\u529b\u4f4d
p4563
I52
sV\u8f6e\u52a8
p4564
I53
sV\u6446\u8131
p4565
I26
sV\u4e89\u593a
p4566
I32
sV\u60ca\u4eba
p4567
I21
sV\u65b0\u5174
p4568
I70
sV\u677f\u8fd8
p4569
I22
sV\u7092\u4f5c
p4570
I159
sV\u8dcc\u4e0d
p4571
I54
sV\u786e\u8ba4
p4572
I87
sV\u8dcc\u4e0b
p4573
I26
sV\u4e5f\u5c31
p4574
I115
sV\u65e5\u5e02
p4575
I81
sV\u591a\u70b9
p4576
I42
sV\u77ed\u6682
p4577
I29
sV\u5728\u5f00
p4578
I55
sV\u89c2\u70b9
p4579
I127
sV\u8d85\u8dcc
p4580
I54
sV\u80a1\u5927
p4581
I72
sV\u76d8\u4e4b
p4582
I23
sV\u56fd\u653f
p4583
I50
sV\u51e0\u5929
p4584
I86
sV\u73b0\u5b9e
p4585
I26
sV\u72fc\u5578
p4586
I100
sV\u9636\u6bb5
p4587
I164
sV\u591a\u505a
p4588
I28
sV\u4ee5\u8bf4
p4589
I68
sV\u5bb6\u53ef
p4590
I19
sV\u5e73\u5f00
p4591
I42
sV\u533b\u836f
p4592
I96
sV\u72b6\u6001
p4593
I172
sV\u7ecf\u4e0d
p4594
I25
sV\u662f\u8f6c
p4595
I123
sV2444
p4596
I27
sV\u4e00\u4ea4
p4597
I48
sV\u5374\u662f
p4598
I51
sV\u53ef\u8c13
p4599
I25
sV\u5927\u80a1
p4600
I37
sV\u51cf\u6301
p4601
I40
sV\u662f\u4f60
p4602
I489
sV\u6253\u538b
p4603
I30
sV\u4e86\u80a1
p4604
I21
sV\u5927\u89c4
p4605
I24
sV\u4eec\u8fd8
p4606
I21
sV\u7b54\u6848
p4607
I37
sV\u7406\u6027
p4608
I36
sV\u6709\u9760
p4609
I21
sV\u7f51\u4e0a
p4610
I19
sV\u5408\u7ea6
p4611
I27
sV\u57fa\u91d1
p4612
I203
sV\u6211\u5c31
p4613
I29
sV\u8303\u56f4
p4614
I33
sV\u8ba9\u5927
p4615
I22
sV\u5168\u56fd
p4616
I66
sV\u80a1\u7968
p4617
I596
sV\u53d1\u51fa
p4618
I41
sV\u5176\u4e2d
p4619
I126
sV\u6700\u91cd
p4620
I38
sV\u6570\u6da8
p4621
I21
sV\u5fae\u535a
p4622
I213
sV\u5730\u6d41
p4623
I70
sV\u7387\u5e02
p4624
I48
sV\u7eaf\u6280
p4625
I24
sV\u4fe1\u8d37
p4626
I30
sV\u5e26\u4e2d
p4627
I22
sV\u8dcc\u4e86
p4628
I52
sV\u8fd9\u4e5f
p4629
I45
sV\u574a\u5427
p4630
I51
sV\u601d\u60f3
p4631
I26
sV\u5bf9\u4e0b
p4632
I21
sV\u518d\u878d
p4633
I74
sV\u6765\u6e90
p4634
I19
sV\u626d\u8f6c
p4635
I22
sV\u4e00\u4ef6
p4636
I38
sV\u65b9\u5411
p4637
I201
sV\u5e26\u4e0a
p4638
I27
sVcom
p4639
I63
sV\u62e9\u4e86
p4640
I19
sV\u6539\u9769
p4641
I203
sV\u662f\u4ece
p4642
I44
sV\u6bb5\u65f6
p4643
I64
sV\u56fe\u663e
p4644
I20
sV\u662f\u4eca
p4645
I45
sV\u52a8\u80fd
p4646
I71
sV\u5e45\u8d85
p4647
I34
sV\u80cc\u666f
p4648
I73
sV\u5f97\u4e0d
p4649
I534
sV\u8868\u77ed
p4650
I39
sV\u7bb1\u4f53
p4651
I36
sV\u662f\u4ec0
p4652
I62
sV\u7565\u6027
p4653
I54
sV\u540c\u6837
p4654
I49
sV\u4ee4\u4eba
p4655
I37
sV\u4e24\u7c7b
p4656
I53
sV2198
p4657
I30
sV\u9664\u4e86
p4658
I79
sV\u5dde\u8305
p4659
I42
sV\u524d\u77bb
p4660
I46
sV\u7d2f\u79ef
p4661
I46
sV\u8d77\u4e86
p4662
I24
sV\u5957\u7262
p4663
I36
sV\u5c42\u9762
p4664
I27
sV\u76f8\u53cd
p4665
I32
sV\u534a\u5e74
p4666
I220
sV\u662f\u4ee5
p4667
I36
sV\u8fd8\u6ca1
p4668
I66
sV\u5019\u5c31
p4669
I47
sV\u771f\u76f8
p4670
I19
sV\u5bf9\u5e94
p4671
I81
sV\u8c03\u6574
p4672
I770
sV\u5b9e\u6218
p4673
I112
sV\u7814\u7a76
p4674
I116
sV\u7f3a\u4e4f
p4675
I33
sV\u4e00\u4f4d
p4676
I44
sV\u90e8\u95e8
p4677
I32
sV\u8981\u5f15
p4678
I40
sV\u8054\u52a8
p4679
I21
sV\u5168\u9762
p4680
I85
sV\u5e94\u8be5
p4681
I738
sV\u53f2\u4e0a
p4682
I34
sV\u8239\u8236
p4683
I25
sV\u4f46\u7531
p4684
I44
sV\u4e3a\u4eca
p4685
I46
sV\u7ecf\u8fc7
p4686
I106
sV\u7ecf\u662f
p4687
I22
sV\u4e00\u8f6e
p4688
I77
sV\u65e5\u5f00
p4689
I60
sV\u5929\u518d
p4690
I21
sV\u521d\u6b65
p4691
I24
sV\u7ecf\u8fde
p4692
I23
sV\uff0b\u6210
p4693
I51
sV\u662f\u4eba
p4694
I20
sV\u5728\u5e02
p4695
I47
sV\uff0b\u6218
p4696
I51
sV\u65e0\u5948
p4697
I20
sV\u4eba\u90fd
p4698
I33
sV\u4ee3\u8868
p4699
I181
sV\u677f\u4e3a
p4700
I26
sV\u6709\u9650
p4701
I81
sV\u53cb\u5728
p4702
I58
sV\u6d88\u5316
p4703
I59
sV\u5927\u673a
p4704
I24
sV\u9f99\u6307
p4705
I250
sV\u591a\u5143
p4706
I31
sV\u4e86\u5f88
p4707
I39
sV\u677f\u4e2d
p4708
I39
sV\u5370\u8bc1
p4709
I21
sV\u4e2a\u5468
p4710
I33
sV\u81f3\u4e8e
p4711
I46
sV\u671f\u6709
p4712
I20
sV\u7ea7\u5e02
p4713
I24
sV\u4e0a\u8fd8
p4714
I25
sV\u4f17\u591a
p4715
I25
sV\u505c\u5bb6
p4716
I21
sV\u540e\u6709
p4717
I41
sV\u5229\u4e9a
p4718
I97
sV\u56de\u62bd
p4719
I22
sV\u5546\u52a1
p4720
I35
sV\u6df1\u4e3b
p4721
I86
sV\u5bf9\u5e02
p4722
I87
sV\u624d\u6709
p4723
I19
sV\u6d77\u4e0a
p4724
I106
sV\u524d\u770b
p4725
I19
sV\u571f\u5730
p4726
I127
sV\u4e2d\u8bf4
p4727
I23
sV\u6df1\u4e24
p4728
I223
sV\u672c\u5730
p4729
I54
sV\u5229\u4e8e
p4730
I45
sV\u80fd\u4e0d
p4731
I62
sV\u5728\u6700
p4732
I26
sV\u4e09\u5b63
p4733
I77
sV\u80fd\u4e0a
p4734
I58
sV\u4e0d\u4e45
p4735
I20
sV\u662f\u4e0d
p4736
I197
sV\u52a1\u9662
p4737
I100
sV\u662f\u4e0b
p4738
I70
sV\u662f\u4e0a
p4739
I122
sV\u8c22\u8c22
p4740
I123
sV\u524d\u9762
p4741
I129
sV\u5927\u677f
p4742
I20
sV\u4e0a\u8fd0
p4743
I24
sV\u672c\u574a
p4744
I51
sV\u540e\u6765
p4745
I20
sV\u9519\u8fc7
p4746
I21
sV\u662f\u4e00
p4747
I416
sV\u81f3\u4eca
p4748
I63
sV\u4e86\u65b0
p4749
I19
sV\u7a7a\u7f3a
p4750
I26
sV\u9006\u52bf
p4751
I29
sV\u76d8\u7b56
p4752
I60
sV\u52a8\u6027
p4753
I219
sV\u677f\u4e5f
p4754
I30
sV\u662f\u4e2d
p4755
I98
sV\u672c\u9762
p4756
I57
sV\u662f\u4e2a
p4757
I92
sV\u6837\u4e00
p4758
I37
sV\u4ece\u6700
p4759
I20
sV\u662f\u4e24
p4760
I27
sV\u5238\u5546
p4761
I269
sV\u6c34\u5e73
p4762
I42
sV\u573a\u9884
p4763
I24
sV\u53c8\u6709
p4764
I31
sV\u662f\u4e3b
p4765
I58
sV\u662f\u4e3a
p4766
I61
sV\u53d7\u5230
p4767
I84
sV\u52a8\u6001
p4768
I24
sV\u64cd\u76d8
p4769
I96
sV\u5e01\u653f
p4770
I38
sV\u65b0\u70ed
p4771
I26
sV\u672a\u80fd
p4772
I67
sV\u4f18\u5148
p4773
I80
sV\u662f\u8dcc
p4774
I34
sV\u81ea\u8d38
p4775
I544
sV\u6b63\u786e
p4776
I39
sV\u4e0d\u53ef
p4777
I126
sV\u5468\u6536
p4778
I32
sV\u77f3\u5316
p4779
I47
sV\u800c\u5728
p4780
I34
sV\u5c0f\u677f
p4781
I277
sV\u667a\u80fd
p4782
I56
sV\u677f\u6da8
p4783
I21
sV\u7ed9\u6211
p4784
I38
sV\u624b\u673a
p4785
I40
sV\u6c47\u4e30
p4786
I42
sV\u4e1a\u53d1
p4787
I19
sV\u9644\u8fd1
p4788
I245
sV\u79cb\u8282
p4789
I65
sV\u6210\u5411
p4790
I24
sV\u662f\u8fde
p4791
I19
sV\u610f\u4e49
p4792
I92
sV\u7ed3\u679c
p4793
I161
sV\u5404\u5927
p4794
I22
sV\u5317\u4eac
p4795
I77
sV\u9047\u963b
p4796
I49
sV\u963b\u56de
p4797
I19
sV\u73b0\u5927
p4798
I49
sV\u6587\u7ae0
p4799
I161
sV\u5168\u7403
p4800
I81
sV\u4e0d\u53d8
p4801
I33
sV\u7ed3\u6784
p4802
I190
sV\u4e8e\u5468
p4803
I21
sV\u540c\u6b65
p4804
I166
sV\u949f\u725b
p4805
I44
sV\u53cb\u95ee
p4806
I22
sV\u662f\u6d88
p4807
I21
sV\u70b9\u4ee5
p4808
I74
sV\u7a0d\u5fae
p4809
I29
sV\u7968\u6295
p4810
I20
sV\u5f00\u5c0f
p4811
I20
sV\u671f\u5927
p4812
I34
sV\u7ec6\u8282
p4813
I21
sV\u7ebd\u7ea6
p4814
I45
sV\u529b\u8d44
p4815
I38
sV\u573a\u6574
p4816
I19
sV\u65b0\u534e
p4817
I25
sV\u662f\u7ee7
p4818
I24
sV\u52a0\u6982
p4819
I48
sV\u7ea2\u5305
p4820
I33
sV\u53cb\u54c1
p4821
I51
sV\u52a0\u8981
p4822
I39
sV\u662f\u6da8
p4823
I40
sV\u65f6\u4e0a
p4824
I28
sV\u70b9\u6982
p4825
I31
sV\u65f6\u4e0d
p4826
I27
sV\u635f\u5931
p4827
I27
sV\u76d8\u5feb
p4828
I19
sV\u80a1\u5374
p4829
I21
sV\u6709\u65b0
p4830
I28
sV\u9020\u4e1a
p4831
I30
sV\u4e0b\u964d
p4832
I61
sV\u5e45\u4e0d
p4833
I32
sV\u53d1\u73b0
p4834
I110
sV\u65f6\u4ee3
p4835
I50
sV\u5e45\u4e0b
p4836
I51
sV\u5e45\u4e0a
p4837
I67
sV\u8d85\u8fc7
p4838
I144
sV\u65af\u6258
p4839
I32
sV\u884c\u5224
p4840
I22
sV\u8fd8\u4f1a
p4841
I55
sV\u6807\u51c6
p4842
I185
sV\u73af\u4fdd
p4843
I87
sV\u5929\u6caa
p4844
I36
sV\u4eec\u5c31
p4845
I20
sV\u4fe1\u53f7
p4846
I118
sV\u8fc7\u4e8e
p4847
I27
sV\u7b49\u4e00
p4848
I19
sV\u52a8\u8361
p4849
I25
sV\u5229\u6da6
p4850
I139
sV\u957f\u671f
p4851
I126
sV\u4e09\u662f
p4852
I21
sV\u5546\u94f6
p4853
I46
sV\u6ca1\u6709
p4854
I917
sV\u89c9\u8005
p4855
I39
sV\u660e\u5e02
p4856
I24
sV\u524d\u540e
p4857
I45
sV\u79cd\u60c5
p4858
I39
sV\u533a\u6982
p4859
I153
sV\u5904\u80a1
p4860
I51
sV\u8bd5\u9a8c
p4861
I21
sV\u95fb\u7b80
p4862
I42
sV\u4f55\u770b
p4863
I88
sV\u5e45\u4e3a
p4864
I257
sV\u8fdc\u662f
p4865
I58
sV\u6d32\u65af
p4866
I31
sV\u5f02\u5e38
p4867
I41
sV\u5f90\u5c0f
p4868
I104
sV\u7a33\u5065
p4869
I29
sV\u6253\u51fb
p4870
I46
sV\u5404\u79cd
p4871
I43
sV\u66f4\u591a
p4872
I62
sV\u7a0b\u5ea6
p4873
I69
sV\u53c2\u8003
p4874
I152
sV\u4e2a\u5730
p4875
I19
sV\u4ec5\u662f
p4876
I30
sV\u5b8c\u5168
p4877
I103
sV\u677f\u8d70
p4878
I32
sV\u5c31\u8981
p4879
I52
sV\u968f\u673a
p4880
I23
sV\u4e00\u7c7b
p4881
I49
sV\u706f\u5854
p4882
I151
sV\u660e\u5e74
p4883
I20
sV\u7b79\u7801
p4884
I150
sV\u6bd4\u589e
p4885
I68
sV\u6bd5\u7adf
p4886
I56
sV\u7ed3\u675f
p4887
I192
sV\u5f53\u4e0b
p4888
I43
sV\u9752\u5b9d
p4889
I37
sV\u4f1a\u5426
p4890
I41
sV\u589e\u957f
p4891
I239
sV\u4e0a\u5f71
p4892
I94
sV\u672c\u5468
p4893
I448
sV\u8361\u540e
p4894
I23
sV\u7efc\u6307
p4895
I168
sV\u540c\u6bd4
p4896
I126
sV\u6570\u62a5
p4897
I22
sV\u73b0\u5f3a
p4898
I20
sV\u66f4\u5927
p4899
I30
sV\u535a\u53cb
p4900
I36
sV\u5348\u5927
p4901
I117
sV\u5a31\u4e50
p4902
I43
sV\u4e48\u8fd9
p4903
I56
sV\u662f\u5411
p4904
I25
sV\u4f1a\u5f15
p4905
I22
sV\u5e45\u8f83
p4906
I42
sV\u5b8f\u89c2
p4907
I91
sV\u8ddf\u98ce
p4908
I26
sV\u6301\u4ed3
p4909
I24
sV\u94b1\u8352
p4910
I33
sV\u6b63\u597d
p4911
I28
sV\u6765\u4e34
p4912
I35
sV\u5b81\u9759
p4913
I54
sV\u90a3\u5c31
p4914
I63
sV\u5929\u6d25
p4915
I46
sV\u672f\u89d2
p4916
I29
sV\u6ce8\u5b9a
p4917
I21
sV\u89e3\u91ca
p4918
I19
sV\u503c\u6295
p4919
I56
sV\u8ba9\u5f88
p4920
I19
sV\u4e0b\u534a
p4921
I84
sV\u4e0b\u5348
p4922
I359
sV\u5f85\u5462
p4923
I44
sV\u63d0\u51fa
p4924
I47
sV\u8fde\u6da8
p4925
I19
sV\u5730\u4ea7
p4926
I452
sV\u62c9\u952f
p4927
I39
sV\u5356\u4e09
p4928
I39
sV\u5546\u54c1
p4929
I34
sV\u4e3a\u4f18
p4930
I31
sV\u8868\u6001
p4931
I30
sV\u6570\u636e
p4932
I336
sV\u72d0\u72f8
p4933
I31
sV\u82f9\u679c
p4934
I28
sV\u5c06\u9762
p4935
I20
sV\u5728\u5c3e
p4936
I23
sV\u6536\u5165
p4937
I41
sV\u7ba1\u5c42
p4938
I21
sV\u5929\u8d70
p4939
I33
sV\u6210\u957f
p4940
I164
sV\u8d77\u6ce8
p4941
I41
sV\u91cf\u80fd
p4942
I401
sV\u534a\u5c0f
p4943
I23
sV\u4e2d\u8f68
p4944
I43
sV\u8054\u50a8
p4945
I127
sV227
p4946
I39
sV\u6bd4\u5927
p4947
I19
sV225
p4948
I27
sV\u4e0a\u7efc
p4949
I85
sV\u8981\u7d20
p4950
I55
sV\u4e4b\u6240
p4951
I31
sV\u662f\u6caa
p4952
I24
sV\u6709\u6548
p4953
I99
sV\u4e24\u5e02
p4954
I723
sV\u4e1a\u52a1
p4955
I47
sV\u662f\u6ca1
p4956
I42
sV\u53c8\u662f
p4957
I88
sV\u4f46\u5728
p4958
I32
sV\u7a76\u7adf
p4959
I24
sV\u540e\u56de
p4960
I37
sV\u6caa\u5e02
p4961
I203
sV\u8651\u5230
p4962
I23
sV\u5e02\u5c06
p4963
I22
sV\u7164\u70ad
p4964
I165
sV\u6bcf\u4e2a
p4965
I23
sV\u8fd8\u4e0d
p4966
I63
sV\u53cb\u53d1
p4967
I22
sV\u667a\u6167
p4968
I60
sV\u5ef6\u7eed
p4969
I215
sV\u9762\u4e34
p4970
I120
sV\u5929\u6da8
p4971
I20
sV\u4e03\u6708
p4972
I54
sV\u4e94\u5927
p4973
I95
sV\u76d8\u7565
p4974
I26
sV\u4e0a\u5e02
p4975
I200
sV\u4fee\u590d
p4976
I40
sV\u7d2f\u8ba1
p4977
I21
sV\u5747\u7ebf
p4978
I529
sV\u53d1\u529b
p4979
I67
sV\u9e92\u9e9f
p4980
I23
sV\u76d8\u5927
p4981
I62
sV\u9762\u4e0a
p4982
I158
sV\u6bcf\u4e00
p4983
I31
sV\u52a8\u624b
p4984
I22
sV\u6709\u673a
p4985
I20
sV\u4f9b\u535a
p4986
I22
sV\u4e0b\u53d8
p4987
I19
sV\u9ad8\u6536
p4988
I26
sV\u7acb\u601d
p4989
I52
sV\u5c06\u6765
p4990
I19
sV\u5e45\u4f4e
p4991
I127
sV\u9000\u6f6e
p4992
I22
sV\u56e0\u6b64
p4993
I185
sV\u5927\u6570
p4994
I23
sV\u62c9\u52a8
p4995
I21
sV\u4e0d\u5229
p4996
I49
sV\u4e00\u8dcc
p4997
I22
sV\u8bc1\u76d1
p4998
I196
sV\u8ba1\u7f72
p4999
I20
sV\u8ba4\u4e3a
p5000
I351
sV\u4e0d\u5230
p5001
I79
sV\u4e5f\u5f88
p5002
I26
sV\u4e0b\u53bb
p5003
I41
sV\u5f00\u9ad8
p5004
I94
sV\u5e74\u5185
p5005
I63
sV\u4f46\u4e0d
p5006
I30
sV\u7ecf\u6d4e
p5007
I579
sV\u91ca\u653e
p5008
I66
sV\u5fc3\u4e2d
p5009
I20
sV\u4ef6\u4e8b
p5010
I35
sV\u4f7f\u7528
p5011
I26
sV\u4e00\u8def
p5012
I72
sV\u4e09\u5929
p5013
I46
sV\u4e8e\u9884
p5014
I24
sV\u6750\u80a1
p5015
I114
sV\u4e0d\u8bf4
p5016
I40
sV\u8981\u6ce8
p5017
I30
sV\u6bd4\u5982
p5018
I73
sV\u8d1f\u9762
p5019
I28
sV\u4e09\u5927
p5020
I160
sV\u65e5\u5fd7
p5021
I30
sV\u86cb\u63a2
p5022
I51
sV\u9f99\u4e8b
p5023
I41
sV\u51c0\u6d41
p5024
I73
sV\u53cd\u6620
p5025
I37
sV\u770b\u6765
p5026
I61
sV\u5728\u535a
p5027
I31
sV\u4ee5\u6765
p5028
I249
sV\u5b9e\u4f53
p5029
I29
sV\u5357\u514b
p5030
I26
sV\u6574\u4f53
p5031
I201
sV\u6740\u8dcc
p5032
I168
sV\u73b0\u9707
p5033
I41
sV\u5f53\u4e2d
p5034
I33
sV\u7092\u5730
p5035
I25
sV\u6284\u5e95
p5036
I54
sV\u65e5\u524d
p5037
I32
sV\u8fc7\u5927
p5038
I23
sV\u51fa\u4f4e
p5039
I24
sV\u4e09\u56fd
p5040
I486
sV\u5f39\u884c
p5041
I20
sV\u5929\u6211
p5042
I31
sV\u6ca1\u80fd
p5043
I22
sV\u5371\u673a
p5044
I60
sV\u4e0a\u51b2
p5045
I107
sV\u6d3b\u8dc3
p5046
I187
sV\u5728\u5348
p5047
I34
sV\u6708\u7b2c
p5048
I20
sV\u4e00\u9633
p5049
I23
sV\u73b0\u5728
p5050
I401
sV\u6253\u5f00
p5051
I36
sV\u4fdd\u9669
p5052
I85
sV816
p5053
I24
sV\u6258\u514b
p5054
I31
sV\u7ad9\u4e0a
p5055
I91
sV\u518d\u6b21
p5056
I200
sV\u6da8\u884c
p5057
I41
sV\u7ad9\u5728
p5058
I36
sV\u5e02\u53cc
p5059
I25
sV\u6781\u884c
p5060
I48
sV\u7ebf\u662f
p5061
I40
sV\u51b5\u6765
p5062
I22
sV\u5176\u5b83
p5063
I28
sV\u5c31\u6709
p5064
I58
sV\u6570\u6536
p5065
I52
sV\u540e\u53cd
p5066
I21
sV\u9884\u589e
p5067
I19
sV\u65e9\u53c2
p5068
I29
sV\u5173\u94fe
p5069
I121
sV\u95f4\u70b9
p5070
I35
sV\u6b62\u8dcc
p5071
I103
sV\u4e00\u6b65
p5072
I125
sV\u65e0\u91cf
p5073
I19
sV\u5bf9\u53d9
p5074
I19
sV\u8fdb\u53bb
p5075
I22
sV\u4f9d\u65e7
p5076
I101
sV\u4e00\u5b63
p5077
I20
sV\u4e00\u6279
p5078
I38
sV\u7f55\u89c1
p5079
I31
sV\u76d8\u76f4
p5080
I30
sV\u6050\u60e7
p5081
I19
sV\u5904\u4e8e
p5082
I145
sV\u5408\u529b
p5083
I33
sV\u6536\u7ea2
p5084
I58
sV\u8bb0\u5f97
p5085
I27
sV\u6574\u8fd8
p5086
I32
sV\u4e00\u628a
p5087
I26
sV\u5fc3\u6001
p5088
I38
sV\u6218\u4e89
p5089
I36
sV\u6d41\u901a
p5090
I33
sV\u4ea4\u5272
p5091
I41
sVpmi
p5092
I74
sV\u8f6c\u53d8
p5093
I19
sV\u4e24\u91cd
p5094
I29
sV\u51b0\u51b7
p5095
I26
sV\u5b9a\u4e86
p5096
I28
sV\u91cd\u78c5
p5097
I30
sV\u8054\u7f51
p5098
I127
sV\u952e\u70b9
p5099
I24
sV\u6298\u817e
p5100
I36
sV\u524d\u63d0
p5101
I19
sV\u679c\u4f60
p5102
I21
sV\u677f\u6307
p5103
I433
sV\u9762\u611f
p5104
I60
sV\u91d1\u878d
p5105
I443
sV\u665a\u4e0a
p5106
I33
sV\u7ecf\u6210
p5107
I22
sV\u52bf\u4e5f
p5108
I20
sV\u662f\u6307
p5109
I39
sV\u4fdd\u969c
p5110
I21
sV\u53c2\u4e0e
p5111
I52
sV\u5e74\u5e95
p5112
I33
sV\u5bb6\u516c
p5113
I19
sV\u5927\u5e95
p5114
I35
sV\u8d22\u653f
p5115
I42
sV\u7f3a\u53e3
p5116
I202
sV\u540c\u65f6
p5117
I168
sV\u53bb\u770b
p5118
I46
sV\u5a01\u5c14
p5119
I30
sV\u4e2a\u5927
p5120
I48
sV\u58f0\u660e
p5121
I130
sV\u591a\u5c11
p5122
I71
sV\u6536\u7eff
p5123
I24
sV\u5e74\u7ebf
p5124
I160
sV\u4e2a\u591a
p5125
I34
sV\u63d0\u4f9b
p5126
I27
sV\u5f00\u95e8
p5127
I114
sV\u5747\u51fa
p5128
I40
sV\u5757\u6da8
p5129
I38
sV\u6253\u5370
p5130
I27
sV\u95f4\u4e0d
p5131
I23
sV\u5176\u5b9e
p5132
I194
sV\u4f3c\u4e4e
p5133
I130
sV\u6210\u7acb
p5134
I39
sV\u5f00\u95f8
p5135
I23
sV\u5468\u8bc4
p5136
I21
sV\u9633\u540e
p5137
I33
sV\u63a8\u51fa
p5138
I93
sV\u8fd9\u4e48
p5139
I87
sV\u5348\u76d8
p5140
I184
sV\u4f1a\u7ee7
p5141
I41
sV\u7ec6\u5206
p5142
I33
sV\u51fb\u7834
p5143
I34
sV\u9ad8\u5ea6
p5144
I38
sV\u5f00\u540e
p5145
I151
sVipo
p5146
I193
sV\u6bcf\u80a1
p5147
I24
sV\u77db\u76fe
p5148
I25
sV\u76ce\u53f8
p5149
I35
sV\u6574\u4e4b
p5150
I22
sV\u5c5e\u4e8e
p5151
I79
sV\u539f\u7406
p5152
I105
sV\u5165\u5230
p5153
I22
sV\u4ef7\u683c
p5154
I195
sV\u706b\u7206
p5155
I30
sV\u7a7a\u53cc
p5156
I27
sV\u6570\u8d70
p5157
I29
sV\u521b\u65b0
p5158
I158
sV\u4ef7\u80a1
p5159
I22
sV\u6307\u6570
p5160
I2007
sV\u535a\u4ea4
p5161
I53
sV\u5f00\u542f
p5162
I54
sV\u4f1a\u5411
p5163
I30
sV\u56de\u8e29
p5164
I140
sV\u5730\u80a1
p5165
I41
sV\u4f1a\u5bf9
p5166
I49
sV\u5728\u524d
p5167
I49
sV\u4eec\u90fd
p5168
I23
sV\u6e90\u4e8e
p5169
I22
sV\u5929\u6307
p5170
I28
sV\u9700\u6c42
p5171
I36
sV\u4e00\u6ce2
p5172
I172
sV\u6b63\u5728
p5173
I117
sV\u8fd9\u4e0d
p5174
I23
sV\u4e2d\u6700
p5175
I21
sV\u8fd9\u4e00
p5176
I154
sV\u7eed\u51b2
p5177
I20
sV\u4e2d\u6709
p5178
I35
sV\u8ddf\u968f
p5179
I36
sV\u660e\u51fa
p5180
I121
sV\u4e86\u6211
p5181
I39
sV\u91d1\u7ebf
p5182
I22
sV\u91cf\u4ef7
p5183
I19
sV\u4e2d\u671f
p5184
I77
sV\u4e0b\u65ec
p5185
I22
sV\u5bb6\u90fd
p5186
I39
sV\u4e0a\u53d1
p5187
I20
sV\u8005\u5728
p5188
I23
sV\u6301\u80a1
p5189
I101
sV\u6307\u6536
p5190
I161
sV\u8fd9\u4e2a
p5191
I547
sV\u53d1\u5c55
p5192
I174
sV\u76d8\u77ed
p5193
I24
sV\u672c\u4eba
p5194
I47
sV\u62a5\u544a
p5195
I37
sV\u51fa\u4e00
p5196
I89
sV\u8fd9\u4e24
p5197
I88
sV\u76d8\u57fa
p5198
I20
sV\u5173\u95e8
p5199
I35
sV\u6574\u4e2a
p5200
I79
sV\u6c38\u8fdc
p5201
I74
sV\u8fd8\u80fd
p5202
I50
sV\u51b0\u706b
p5203
I25
sV\u5356\u51fa
p5204
I41
sV\u6d41\u51fa
p5205
I79
sV\u51cf\u4ed3
p5206
I30
sV\u4e8b\u5b9e
p5207
I64
sV\u5c31\u662f
p5208
I667
sV\u6df1\u6210
p5209
I152
sV\u606f\u6709
p5210
I67
sV\u5f15\u9886
p5211
I22
sV\u8fc7\u4e00
p5212
I23
sV\u5f88\u5f3a
p5213
I22
sV\u76d8\u9707
p5214
I64
sV\u9634\u540e
p5215
I26
sV\u5f3a\u52bf
p5216
I331
sV\u505a\u591a
p5217
I192
sV\u6709\u6240
p5218
I175
sV\u5171\u632f
p5219
I26
sV\u79cd\u65b9
p5220
I24
sV\u5f3a\u52b2
p5221
I58
sV\u6da8\u52bf
p5222
I26
sV\u76d8\u5728
p5223
I173
sV\u91cf\u4e0a
p5224
I36
sV\u6839\u4e2d
p5225
I24
sV\u80fd\u4f1a
p5226
I38
sV\u7406\u8d22
p5227
I30
sV\u5173\u952e
p5228
I227
sV\u535a\u4e3b
p5229
I55
sV\u4e2a\u6708
p5230
I145
sV\u6027\u4e0b
p5231
I22
sV\u6027\u4e0a
p5232
I30
sV\u6d88\u606f
p5233
I744
sV\u80a1\u9886
p5234
I21
sV\u9884\u6d4b
p5235
I234
sV\u70b9\u662f
p5236
I80
sV\u6027\u4e70
p5237
I80
sV\u4e94\u8d70
p5238
I20
sV\u8fd1\u51e0
p5239
I27
sV\u5fae\u5e45
p5240
I37
sV\u8fd9\u4e9b
p5241
I118
sV\u7f8e\u56fd
p5242
I334
sV\u4e24\u70b9
p5243
I44
sV\u5f88\u5bb9
p5244
I19
sV\u5143\u91d1
p5245
I26
sV\u592a\u5927
p5246
I35
sV\u662f\u6211
p5247
I91
sV\u795e\u5947
p5248
I26
sV\u5178\u578b
p5249
I24
sV\u4e86\u8df3
p5250
I31
sV\u6d41\u5165
p5251
I43
sV\u592a\u591a
p5252
I57
sV\u64cd\u7eb5
p5253
I31
sV\u76d8\u9762
p5254
I403
sV\u51fa\u4e86
p5255
I183
sV\u7ebf\u8fd8
p5256
I26
sV\u770b\u5e02
p5257
I30
sV\u8f83\u4e3a
p5258
I66
sV\u4e0d\u5c11
p5259
I164
sV\u6d4b\u8bd5
p5260
I494
sV\u56db\u4e2a
p5261
I36
sV\u601d\u8def
p5262
I63
sV\u4f20\u8a00
p5263
I21
sV\u7ed3\u8bba
p5264
I26
sV\u5355\u8fb9
p5265
I36
sV\u8bbe\u65bd
p5266
I30
sV\u76d8\u548c
p5267
I20
sV\u626c\u5347
p5268
I29
sV\u9996\u5148
p5269
I77
sV\u89c2\u7ecf
p5270
I59
sV\u6570\u4e5f
p5271
I28
sV\u5206\u949f
p5272
I381
sV\u4e86\u4e00
p5273
I377
sV\u6709\u6ca1
p5274
I21
sV\u503a\u5238
p5275
I25
sV\u540d\u79f0
p5276
I24
sV\u5e55\u4ea4
p5277
I24
sV\u7ee7\u7eed
p5278
I759
sV\u4e86\u4e0b
p5279
I40
sV\u4e86\u4e0d
p5280
I37
sV\u70b9\u65f6
p5281
I22
sV\u5305\u62ec
p5282
I75
sV\u59cb\u4e86
p5283
I32
sV\u4e0a\u53bb
p5284
I48
sV\u4eec\u53ef
p5285
I29
sV\u62c5\u5fe7
p5286
I39
sV\u8fde\u9633
p5287
I127
sV\u5f02\u52a8
p5288
I88
sV\u5348\u95f4
p5289
I26
sV\u6536\u5c0f
p5290
I47
sV\u96c6\u56e2
p5291
I33
sV\u4f30\u8ba1
p5292
I52
sV\u4e86\u4e24
p5293
I42
sV\u56de\u8d2d
p5294
I54
sV\u6700\u5f3a
p5295
I24
sV\u540c\u671f
p5296
I22
sV\u7535\u5668
p5297
I19
sV\u6708\u5927
p5298
I29
sV\u4f5c\u7528
p5299
I89
sV\u575a\u51b3
p5300
I23
sV\u5176\u80a1
p5301
I41
sV\u5bf9\u521b
p5302
I27
sV\u4e3a\u5927
p5303
I29
sV\u5bf9\u4e0a
p5304
I23
sV\u5b9a\u7a0b
p5305
I26
sV\u4eac\u4e1c
p5306
I24
sV\u51fa\u8d27
p5307
I25
sV\u4eba\u65e0
p5308
I32
sV\u6d77\u81ea
p5309
I209
sV\u573a\u6700
p5310
I20
sV\u4f4e\u5438
p5311
I29
sV\u63a8\u52a8
p5312
I88
sV\u80a1\u7ee7
p5313
I21
sV\u6570\u4e0a
p5314
I148
sV\u6570\u4e0b
p5315
I104
sV\u8bc1\u660e
p5316
I20
sV\u7eb3\u6307
p5317
I74
sV\u6570\u4e0d
p5318
I34
sV\u903c\u8fd1
p5319
I57
sV\u76d8\u62a5
p5320
I29
sV\u4e0d\u5f97
p5321
I525
sV\u4e0a\u53ef
p5322
I74
sV\u56fd\u8bc1
p5323
I37
sV\u5bcc\u6210
p5324
I31
sV\u751f\u94f6
p5325
I27
sV\u5438\u5f15
p5326
I28
sV\u5e02\u51fa
p5327
I23
sV\u884d\u751f
p5328
I20
sV\u8865\u4e86
p5329
I23
sV\u76d8\u540e
p5330
I265
sV\u63aa\u65bd
p5331
I31
sV\u80a1\u5728
p5332
I39
sV\u4e86\u6307
p5333
I27
sV\u503a\u52a1
p5334
I45
sV\u4efb\u52a1
p5335
I32
sV\u5f88\u660e
p5336
I25
sV\u524d\u4ecb
p5337
I40
sV\u70b9\u6574
p5338
I57
sV\u6027\u8d28
p5339
I70
sV\u4fe1\u5fc3
p5340
I83
sV\u52a8\u4f5c
p5341
I139
sV\u5efa\u7acb
p5342
I35
sV\u8bb2\u8fc7
p5343
I29
sV\u5ff5\u7231
p5344
I55
sV\u4e5f\u8bf4
p5345
I20
sV\u731c\u6d4b
p5346
I19
sV\u4e8f\u635f
p5347
I40
sV\u7ebf\u8d70
p5348
I19
sV\u8ba1\u5212
p5349
I41
sV\u6d77\u672c
p5350
I49
sV\u542b\u4e49
p5351
I22
sV\u5728\u7ecf
p5352
I25
sV\u591a\u5e74
p5353
I66
sV\u4e2a\u6d88
p5354
I23
sV\u8981\u60f3
p5355
I20
sV\u5c06\u662f
p5356
I39
sV\u4f53\u7cfb
p5357
I19
sV\u6709\u591a
p5358
I71
sV\u524d\u591a
p5359
I20
sV\u914d\u7f6e
p5360
I58
sV\u60c5\u662f
p5361
I25
sV\u552f\u4e00
p5362
I36
sV\u5ff5\u524d
p5363
I34
sV\u770b\u65b0
p5364
I471
sV\u4e0a\u5348
p5365
I329
sV\u4e0a\u534a
p5366
I68
sV\u5f71\u89c6
p5367
I23
sV\u4e0a\u5347
p5368
I114
sV\u7801\u641c
p5369
I117
sV\u7531\u4e8e
p5370
I268
sV\u5bf9\u5149
p5371
I25
sV\u91cd\u7ec4
p5372
I65
sV\u91cf\u6bd4
p5373
I46
sV\u540e\u884c
p5374
I28
sV\u6e29\u5dde
p5375
I21
sV\u5e02\u516c
p5376
I82
sV\u91cf\u8d44
p5377
I31
sV\u6237\u670b
p5378
I20
sV\u9ad8\u6865
p5379
I28
sV\u6709\u592a
p5380
I36
sV\u4ea4\u901a
p5381
I55
sV\u5e02\u5171
p5382
I37
sV\u505a\u7a7a
p5383
I123
sV\u8981\u70b9
p5384
I46
sV\u5927\u884c
p5385
I60
sV\u6709\u5927
p5386
I86
sV\u5171\u6210
p5387
I71
sV\u4e4b\u4e2d
p5388
I59
sV\u4e8e\u5927
p5389
I36
sV\u4e0b\u5f71
p5390
I82
sV\u5168\u5929
p5391
I206
sV\u5ea6\u6765
p5392
I37
sV\u9632\u8303
p5393
I62
sV\u8bd5\u70b9
p5394
I55
sV\u56de\u8c03
p5395
I146
sV\u677f\u80a1
p5396
I32
sV\u8d44\u91d1
p5397
I621
sV\u4ea4\u91cf
p5398
I253
sV\u4e4b\u4e00
p5399
I47
sV\u6a2a\u76d8
p5400
I85
sV\u4e1a\u7ee9
p5401
I121
sV\u4ece\u5927
p5402
I20
sV\u5b89\u5168
p5403
I37
sV\u4e4b\u4e0b
p5404
I107
sV\u4e4b\u4e0a
p5405
I116
sV\u76d1\u4f1a
p5406
I209
sV\u836f\u80a1
p5407
I27
sV\u8df3\u6c34
p5408
I255
sV\u6df1\u80a1
p5409
I63
sV\u53d1\u5e03
p5410
I106
sV\u8c28\u614e
p5411
I75
sV\u5927\u6982
p5412
I31
sV\u9707\u8361
p5413
I1054
sV\u653e\u5f00
p5414
I41
sV\u6295\u8d44
p5415
I1262
sV\u5e02\u70b9
p5416
I151
sV\u4ea4\u91d1
p5417
I111
sV\u8ba8\u8bba
p5418
I44
sV\u5165\u5b66
p5419
I51
sV\u662f\u7f8e
p5420
I25
sV\u6307\u671f
p5421
I81
sV\u7ebf\u6536
p5422
I96
sV\u51fb\u7a7f
p5423
I20
sV\u4f1a\u5982
p5424
I53
sV\u5e02\u6709
p5425
I22
sV\u4e0d\u7528
p5426
I19
sV\u8f83\u6628
p5427
I31
sV\u4e0d\u518d
p5428
I38
sV\u878d\u5238
p5429
I26
sV\u6307\u6709
p5430
I45
sV\u6b64\u524d
p5431
I39
sV\u80a1\u96c6
p5432
I32
sV\u5757\u4e2d
p5433
I21
sV\u5757\u4e2a
p5434
I21
sV\u662f\u80a1
p5435
I109
sV\u7b80\u79f0
p5436
I25
sV\u76f4\u64ad
p5437
I115
sV\u4e00\u8003
p5438
I21
sV\u7a81\u7834
p5439
I529
sV\u5468\u884c
p5440
I31
sV\u70b9\u4e00
p5441
I77
sV\u5ea6\u6709
p5442
I19
sV\u52a8\u4e86
p5443
I35
sV\u70b9\u6536
p5444
I22
sV\u671f\u4e0a
p5445
I19
sV\u524d\u65e5
p5446
I22
sV\u524d\u5927
p5447
I45
sV\u6587\u9752
p5448
I469
sV\u77f3\u9e92
p5449
I23
sV\u6570\u8fd8
p5450
I33
sV\u80a1\u4f9d
p5451
I24
sV\u4e16\u754c
p5452
I73
sV\u53cd\u62bd
p5453
I45
sV\u80fd\u6027
p5454
I49
sV\u5f88\u6709
p5455
I47
sV\u7092\u80a1
p5456
I72
sV\u5c06\u6709
p5457
I25
sV\u79fb\u52a8
p5458
I45
sV\u503c\u4e2a
p5459
I22
sV\u7834\u4e86
p5460
I73
sV\u5e45\u632f
p5461
I19
sV\u8df7\u8df7
p5462
I38
sV\u4ebf\u7f8e
p5463
I25
sV\u4e2d\u65ec
p5464
I27
sV\u8fd9\u6ce2
p5465
I31
sV\u826f\u597d
p5466
I30
sV\u80fd\u5728
p5467
I37
sV\u4e5f\u53ef
p5468
I52
sV\u7ed9\u51fa
p5469
I51
sV\u4e5f\u53ea
p5470
I21
sV\u5e02\u503c
p5471
I107
sV\u4ece\u5468
p5472
I25
sV\u6539\u59d4
p5473
I29
sV\u6536\u56de
p5474
I19
sV\u4e1a\u5e73
p5475
I50
sV\u9677\u5165
p5476
I24
sV\u9700\u8981
p5477
I241
sV\u4e8c\u5b63
p5478
I43
sV\u7ebf\u65b9
p5479
I19
sV\u627e\u5230
p5480
I29
sV\u4e86\u8fd9
p5481
I46
sV\u6700\u7ec8
p5482
I313
sV\u54c1\u79cd
p5483
I113
sV\u7ea2\u5229
p5484
I34
sV\u5c11\u6709
p5485
I20
sV\u5c0f\u8dcc
p5486
I24
sV\u5348\u540e
p5487
I444
sV\u521a\u521a
p5488
I40
sV\u5f00\u76d8
p5489
I555
sV\u6b21\u51fa
p5490
I23
sV\u4fc3\u8fdb
p5491
I20
sV\u590d\u9707
p5492
I30
sV\u5f3a\u70c8
p5493
I29
sV\u91cd\u5fc3
p5494
I20
sV\u4ee5\u53ca
p5495
I163
sV\u5b9e\u4e0a
p5496
I34
sV\u6da6\u589e
p5497
I23
sV\u4e48\u5927
p5498
I29
sV\u52a8\u4e0b
p5499
I100
sV\u91d1\u7ecf
p5500
I30
sV\u4e00\u81f4
p5501
I31
sV\u4e86\u53cd
p5502
I27
sV\u89e6\u53ca
p5503
I60
sV\u539f\u56e0
p5504
I254
sV\u9ad8\u4e8e
p5505
I19
sV2185
p5506
I19
sV\u653b\u51fb
p5507
I66
sV\u5e02\u5728
p5508
I29
sV\u671f\u4e94
p5509
I28
sV\u9ad8\u4e86
p5510
I20
sV\u663e\u7136
p5511
I75
sV\u89e3\u51b3
p5512
I37
sV\u671f\u4e8c
p5513
I25
sV\u4e07\u5143
p5514
I45
sV\u5929\u662f
p5515
I103
sV\u6700\u591a
p5516
I31
sV\u64cd\u65e5
p5517
I30
sV\u9886\u4e0b
p5518
I23
sV\u718a\u5e02
p5519
I71
sV\u8fd9\u5bf9
p5520
I33
sV\u4ece\u4eca
p5521
I53
sV\u6d3b\u52a8
p5522
I21
sV\u6700\u5927
p5523
I153
sV\u4f7f\u5f97
p5524
I56
sV\u4e8e\u5e02
p5525
I35
sV\u5730\u65b9
p5526
I125
sV\u80a1\u518d
p5527
I30
sV\u4e00\u662f
p5528
I123
sV\u654f\u611f
p5529
I28
sV\u5927\u4e86
p5530
I29
sV\u65e0\u7591
p5531
I43
sV\u6790\u4e86
p5532
I21
sV\u65c5\u6e38
p5533
I31
sV\u573a\u4f1a
p5534
I27
sV\u597d\u4e0d
p5535
I21
sV\u5927\u4e8e
p5536
I46
sV\u77ed\u7ebf
p5537
I472
sV\u597d\u4e0e
p5538
I70
sV\u5927\u4e8b
p5539
I47
sV\u4e3a\u6211
p5540
I25
sV\u606f\u523a
p5541
I20
sV\u653f\u6cbb
p5542
I40
sV\u5dee\u4e0d
p5543
I32
sV\u5c0f\u660e
p5544
I104
sV\u6bcf\u65e5
p5545
I138
sV\u79c1\u574a
p5546
I51
sV\u662f\u771f
p5547
I35
sV\u4e0d\u59a8
p5548
I23
sV\u591a\u6295
p5549
I20
sV\u90fd\u77e5
p5550
I19
sV\u6709\u5f88
p5551
I53
sV\u63a2\u5230
p5552
I21
sV\u79d1\u5b66
p5553
I23
sV\u80a1\u51fa
p5554
I33
sV\u6790\u5e08
p5555
I27
sV\u666e\u6da8
p5556
I64
sV\u597d\u4e8e
p5557
I20
sV\u4ece\u4e8c
p5558
I30
sV\u4e0d\u5982
p5559
I50
sV\u8fd9\u6b21
p5560
I79
sV\u53cc\u5c0f
p5561
I31
sV\u878d\u5e02
p5562
I26
sV\u8ffd\u9ad8
p5563
I24
sV\u53ea\u8981
p5564
I81
sV\u5728\u770b
p5565
I24
sV\u8981\u9632
p5566
I38
sV\u597d\u4e8b
p5567
I27
sV\u5de5\u4e1a
p5568
I79
sV\u9009\u80a1
p5569
I80
sV\u798f\u6295
p5570
I49
sV\u76f4\u63a5
p5571
I108
sV\u4f4d\u8fdb
p5572
I25
sV\u6700\u597d
p5573
I531
sV\u9ad8\u4e0a
p5574
I32
sV\u51c0\u5229
p5575
I64
sV\u672c\u5e02
p5576
I72
sV\u5168\u7ebf
p5577
I76
sV\u76d8\u624b
p5578
I25
sV\u7efd\u653e
p5579
I484
sV\u5e02\u5c0f
p5580
I46
sV\u8d77\u6765
p5581
I105
sV\u7c7b\u4f3c
p5582
I44
sV\u9633\u4e4b
p5583
I20
sV\u76d8\u521b
p5584
I30
sV\u671f\u4e0d
p5585
I19
sV\u65e5\u76f8
p5586
I47
sV\u9677\u9631
p5587
I35
sV\u5728\u77ed
p5588
I22
sV\u4e0d\u597d
p5589
I50
sV\u9898\u6750
p5590
I296
sV\u90fd\u5728
p5591
I75
sV\u671f\u4e00
p5592
I99
sV\u9ad8\u4e2a
p5593
I25
sV\u540e\u4e0a
p5594
I23
sV\u718a\u7ebf
p5595
I54
sV\u6536\u7a84
p5596
I28
sV\u51b7\u89c2
p5597
I20
sV\u524d\u5e02
p5598
I150
sV\u540e\u4e00
p5599
I192
sV\u5c0f\u6da8
p5600
I30
sV\u7406\u683c
p5601
I35
sV\u65e5\u56de
p5602
I41
sV\u65e5\u76d8
p5603
I129
sV\u5927\u4e00
p5604
I24
sV\u5206\u522b
p5605
I45
sV\u80fd\u6709
p5606
I57
sV\u8fd9\u8bf4
p5607
I33
sV\u5e02\u573a
p5608
I2887
sV\u4e00\u8d77
p5609
I51
sV\u52bf\u7ebf
p5610
I20
sV\u4e0d\u5927
p5611
I101
sV\u9650\u5236
p5612
I22
sV\u662f\u6709
p5613
I133
sV\u76d8\u524d
p5614
I253
sV\u80a1\u5168
p5615
I27
sV\u8f6c\u578b
p5616
I69
sV\u5b63\u62a5
p5617
I39
sV\u662f\u6700
p5618
I92
sV\u8fdb\u4e00
p5619
I71
sV\u800c\u5df2
p5620
I26
sV\u822a\u5929
p5621
I28
sV\u725b\u718a
p5622
I77
sV\u627f\u63a5
p5623
I23
sV\u4e0d\u592a
p5624
I57
sV\u5e73\u5747
p5625
I100
sV\u4e8c\u7c7b
p5626
I30
sV\u73b0\u53cd
p5627
I32
sV\u4e2d\u62a5
p5628
I91
sV\u8282\u65e5
p5629
I61
sV\u751f\u547d
p5630
I58
sV\u603b\u6210
p5631
I51
sV\u7565\u6709
p5632
I45
sV\u5f7b\u5e95
p5633
I34
sV\u6210\u719f
p5634
I26
sV\u5347\u683c
p5635
I21
sV\u8c01\u662f
p5636
I484
sV\u836f\u677f
p5637
I26
sV\u8ba4\u8bc6
p5638
I29
sV\u7eb3\u65af
p5639
I52
sV\u6cb9\u671f
p5640
I51
sV\u98ce\u5411
p5641
I20
sV\u5bb9\u6613
p5642
I87
sV\u5927\u4e4c
p5643
I65
sV\u540e\u7eed
p5644
I19
sV\u4e0d\u591a
p5645
I67
sV\u524d\u53c2
p5646
I98
sV\u573a\u4e2d
p5647
I44
sV\u91cd\u5927
p5648
I86
sV\u5929\u5df2
p5649
I26
sV\u8272\u91d1
p5650
I74
sV\u6545\u4e8b
p5651
I36
sV\u623f\u4ef7
p5652
I72
sV\u6709\u7ed3
p5653
I21
sV\u60c5\u5c06
p5654
I25
sV\u91cd\u5929
p5655
I27
sV\u76f8\u5bf9
p5656
I166
sV\u8fc7\u8282
p5657
I57
sV\u6d9b\u60ca
p5658
I52
sV\u5f39\u8d70
p5659
I27
sV\u7814\u5224
p5660
I116
sV\u653e\u5927
p5661
I197
sV\u6b64\u540e
p5662
I19
sV\u573a\u4e0d
p5663
I20
sV\u6b64\u540c
p5664
I20
sV\u8361\u4e3a
p5665
I22
sV\u5373\u4fbf
p5666
I34
sV\u573a\u4e0a
p5667
I65
sV\u5b83\u4eec
p5668
I34
sV\u60ef\u6027
p5669
I79
sV\u8fde\u63a5
p5670
I19
sV\u65e5\u5747
p5671
I347
sV\u57fa\u7840
p5672
I71
sV\u54cd\u4e0b
p5673
I51
sV\u5468\u4e0a
p5674
I27
sV\u5de5\u4f5c
p5675
I61
sV\u5468\u4e09
p5676
I390
sV\u9ad8\u8fbe
p5677
I20
sV\u5929\u6700
p5678
I20
sV\u5468\u4e00
p5679
I504
sV\u73b0\u8d27
p5680
I22
sV\u6253\u7834
p5681
I29
sV\u7a33\u5b9a
p5682
I98
sV\u65b9\u9762
p5683
I307
sV\u5174\u4e1a
p5684
I36
sV\u65e5\u5728
p5685
I31
sV\u76d8\u53cd
p5686
I31
sV\u5411\u597d
p5687
I20
sV\u8981\u770b
p5688
I41
sV\u5e02\u76c8
p5689
I60
sV\u4ece\u4e0a
p5690
I49
sV\u662f\u672c
p5691
I41
sV\u677f\u5c31
p5692
I22
sV\u8df7\u677f
p5693
I38
sV\u597d\u8f6c
p5694
I22
sV\u80a1\u90fd
p5695
I21
sV\u76d8\u53d7
p5696
I22
sV\u76d8\u591a
p5697
I27
sV\u4e00\u6761
p5698
I41
sV\u518d\u4e00
p5699
I45
sV\u6781\u5927
p5700
I25
sV\u4e0a\u4e0d
p5701
I20
sV\u6838\u5fc3
p5702
I92
sV\u6050\u6015
p5703
I39
sV\u518d\u4e0a
p5704
I22
sV\u540e\u8fd8
p5705
I36
sV\u7406\u89e3
p5706
I75
sV\u5931\u8d25
p5707
I26
sV\u4eec\u5bf9
p5708
I32
sV\u4ee5\u6211
p5709
I19
sV\u7edf\u8ba1
p5710
I71
sV\u840e\u7f29
p5711
I179
sV\u548c\u524d
p5712
I50
sV\u5206\u5316
p5713
I166
sV\u5728\u56fd
p5714
I23
sV\u5341\u6708
p5715
I47
sV\u5145\u5206
p5716
I48
sV\u5fc5\u8981
p5717
I38
sV\u6f5c\u529b
p5718
I20
sV\u6708\u5e95
p5719
I40
sV\u677f\u662f
p5720
I37
sV\u6301\u4e86
p5721
I19
sV\u771f\uff0b
p5722
I51
sV\u5e26\u6765
p5723
I113
sV\u573a\u4eba
p5724
I27
sV\u76f8\u5173
p5725
I245
sV\u4e0b\u79fb
p5726
I19
sV\u7c7b\u4e2a
p5727
I79
sV\u80fd\u662f
p5728
I62
sV\u6628\u65e5
p5729
I458
sV\u7eed\u6027
p5730
I29
sV\u8003\u63d0
p5731
I49
sV\u6708\u7ebf
p5732
I51
sV\u5c55\u671b
p5733
I42
sV\u706b\u4e24
p5734
I23
sV\u6784\u6027
p5735
I46
sV\u4e00\u7bc7
p5736
I42
sV\u5927\u4f1a
p5737
I28
sV\u5468\u4e94
p5738
I653
sV\u6e2f\u6e7e
p5739
I53
sV\u540e\u4f1a
p5740
I38
sVhtml
p5741
I51
sV\u540e\u6536
p5742
I42
sV\u5468\u4e8c
p5743
I388
sV\u6536\u5b98
p5744
I68
sV\u573a\u8fd8
p5745
I39
sV\u5e45\u6536
p5746
I40
sV\u7ebf\u5411
p5747
I20
sV\u624d\u4f1a
p5748
I24
sV\u9ad8\u4f4e
p5749
I21
sV\u636e\u663e
p5750
I20
sV\u9ad8\u4f4d
p5751
I97
sV\u672f\u6307
p5752
I24
sV\u52a0\u4e86
p5753
I25
sV\u629b\u76d8
p5754
I21
sV\u5341\u591a
p5755
I19
sV\u76d8\u5347
p5756
I39
sV\u8d37\u8d44
p5757
I23
sV\u6211\u7528
p5758
I30
sV\u4e0d\u591f
p5759
I44
sV\u636e\u6bcf
p5760
I40
sV\u79c1\u52df
p5761
I34
sV\u5373\u4f7f
p5762
I38
sV\u662f\u6628
p5763
I21
sV\u591a\u5927
p5764
I50
sV\u7ef4\u7a33
p5765
I58
sV\u54cd\u4eca
p5766
I69
sV\u5ba2\u91cc
p5767
I23
sV\u4e2a\u5c0f
p5768
I73
sV\u4e0a\u5468
p5769
I536
sV\u610f\u6599
p5770
I25
sV\u591a\u5934
p5771
I193
sV\u5174\u4ea7
p5772
I26
sV\u7ebf\u6280
p5773
I19
sVgdp
p5774
I28
sV\u4e8c\u7ea7
p5775
I27
sV215
p5776
I47
sV212
p5777
I28
sV\u65e5\u5468
p5778
I51
sV\u591a\u79cd
p5779
I22
sV\u5468\u516d
p5780
I23
sV\u6211\u56fd
p5781
I57
sV\u767e\u70b9
p5782
I29
sV\u7eed\u4fdd
p5783
I24
sV\u80a1\u5df2
p5784
I23
sV\u8c03\u67e5
p5785
I43
sV\u4e8c\u7ebf
p5786
I19
sV\u5408\u7406
p5787
I37
sV\u2192\u7531
p5788
I53
sV\u6628\u665a
p5789
I39
sV\u5916\u8d44
p5790
I22
sV\u4e24\u5468
p5791
I29
sV\u53cd\u800c
p5792
I45
sV\u81f3\u6536
p5793
I131
sV\u7136\u540e
p5794
I75
sV\u9762\u5bf9
p5795
I60
sV\u9009\u62e9
p5796
I209
sV\u7136\u5728
p5797
I39
sV\u76d8\u70b9
p5798
I36
sV\u4e00\u770b
p5799
I25
sV\u4eca\u65e5
p5800
I1045
sV\u4e86\u591a
p5801
I22
sV\u5148\u77e5
p5802
I42
sV\u9ed1\u8272
p5803
I24
sV\u4e0d\u7ba1
p5804
I47
sV\u7a33\u589e
p5805
I38
sV\u5468\u8d70
p5806
I31
sV\u5e02\u6765
p5807
I19
sV\u9006\u56de
p5808
I38
sV\u5347\u901a
p5809
I28
sV\u6307\u5168
p5810
I19
sV\u89d2\u5ea6
p5811
I116
sV\u6c7d\u8f66
p5812
I42
sV\u878d\u5730
p5813
I25
sV\u679c\u8981
p5814
I128
sV\u5356\u76d8
p5815
I80
sV\u573a\u8d70
p5816
I54
sV\u4e09\u70b9
p5817
I39
sV\u4f4f\u623f
p5818
I23
sV\u534e\u8c0a
p5819
I25
sV\u5c06\u5ef6
p5820
I19
sV\u4e9a\u592a
p5821
I31
sV\u573a\u8d44
p5822
I20
sV\u7f8e\u5143
p5823
I201
sV\u5c0f\u4f01
p5824
I20
sV\u80a1\u53d1
p5825
I55
sV\u4e0d\u7b97
p5826
I38
sV\u4e0d\u5b9c
p5827
I25
sV\u662f\u65b0
p5828
I27
sV\u98ce\u9669
p5829
I298
sV\u8fd8\u6709
p5830
I225
sV\u66b4\u529b
p5831
I34
sV\u4f18\u79c0
p5832
I28
sV\u5bbd\u677e
p5833
I31
sV\u6ce2\u52a8
p5834
I131
sV\u529e\u6cd5
p5835
I28
sV\u89c9\u5f97
p5836
I90
sV\u2248\u2248
p5837
I64
sV\u5de6\u53f3
p5838
I206
sV\u4e0a\u770b
p5839
I151
sV\u89c4\u6a21
p5840
I87
sV\u96c6\u524d
p5841
I78
sV\u671f\u8c01
p5842
I476
sV\u5177\u5907
p5843
I54
sV\u5343\u4ebf
p5844
I22
sV\u6e38\u620f
p5845
I536
sV\u5238\u5e02
p5846
I45
sV\u590d\u724c
p5847
I24
sV\u65af\u5de5
p5848
I53
sV\u5bb6\u770b
p5849
I28
sV\u9762\u6709
p5850
I23
sV\u6781\u7aef
p5851
I19
sV\u5c06\u518d
p5852
I20
sV\u4e4f\u529b
p5853
I24
sV\u591a\u7a7a
p5854
I149
sV\u662f\u6574
p5855
I25
sV\u6309\u7167
p5856
I61
sV\u9762\u6765
p5857
I29
sV\u884c\u4e2d
p5858
I27
sV\u8003\u9a8c
p5859
I55
sV\u6301\u6709
p5860
I55
sV\u662f\u8c03
p5861
I19
sV\u7834\u65e9
p5862
I21
sV\u4eec\u770b
p5863
I58
sV\u884c\u5728
p5864
I27
sV\u4e00\u64cd
p5865
I34
sV\u4f4e\u70b9
p5866
I205
sV\u5f00\u53d1
p5867
I39
sV\u660e\u767d
p5868
I44
sV\u6fc0\u6d3b
p5869
I24
sV\u8c0a\u5144
p5870
I19
sV\u514b\u6307
p5871
I32
sV\u8dcc\u5230
p5872
I37
sV\u9634\u5341
p5873
I22
sV\u8be6\u7ec6
p5874
I45
sV\u5386\u53f2
p5875
I251
sV\u51e0\u5341
p5876
I20
sV\u53f2\u65b0
p5877
I109
sV\u9759\u6e2f
p5878
I52
sV\u672f\u6027
p5879
I90
sV\u5426\u5219
p5880
I31
sV\u4eec\u5728
p5881
I26
sV\u4e1c\u65b9
p5882
I51
sV\u662f\u653f
p5883
I22
sV\u540e\u5f80
p5884
I42
sV\u6307\u62a5
p5885
I37
sV\u5bbd\u5e26
p5886
I30
sV\u4e48\u662f
p5887
I19
sV\u677f\u6548
p5888
I22
sV\u662f\u6536
p5889
I38
sV\u5230\u5468
p5890
I22
sV\u4f9d\u636e
p5891
I24
sV\u80af\u5b9a
p5892
I51
sV\u6709\u56de
p5893
I27
sV\u6709\u5982
p5894
I19
sV\u76d8\u518d
p5895
I47
sV\u76d8\u8981
p5896
I22
sV\u573a\u4e00
p5897
I27
sV\u5929\u6536
p5898
I51
sV\u5728\u5468
p5899
I95
sV\u7a7a\u95f4
p5900
I178
sV\u6218\u7565
p5901
I89
sV\u6536\u51fa
p5902
I177
sV\u5927\u6da8
p5903
I352
sV\u5929\u6709
p5904
I26
sV\u6c14\u6c1b
p5905
I35
sV\u7ea0\u7ed3
p5906
I80
sV\u5f71\u54cd
p5907
I622
sV\u7406\u8bba
p5908
I48
sV\u5c01\u95ed
p5909
I25
sV\u6536\u590d
p5910
I116
sV\u9884\u8ba1
p5911
I86
sV\u5e45\u6ce2
p5912
I19
sV\u5916\u56f4
p5913
I135
sV\u7531\u6b64
p5914
I81
sV\u671f\u6da8
p5915
I64
sV\u76d8\u51b2
p5916
I46
sV\u4ebf\u5143
p5917
I345
sV\u52a0\u5f3a
p5918
I19
sV\u70ed\u60c5
p5919
I33
sV\u65e5\u9ad8
p5920
I30
sV\u8db3\u591f
p5921
I20
sV\u8865\u6da8
p5922
I48
sV\u76d8\u91cd
p5923
I20
sV\u548c\u80a1
p5924
I21
sV\u5c31\u6ca1
p5925
I22
sV\u6708\u4e2d
p5926
I43
sV\u7b56\u9762
p5927
I24
sV\u96c6\u539f
p5928
I39
sV\u8dcc\u6536
p5929
I19
sV\u4e00\u573a
p5930
I32
sV\u4e0a\u8e7f
p5931
I19
sV\u6bcf\u6b21
p5932
I24
sV\u524d\u5df2
p5933
I24
sV\u53c8\u4e00
p5934
I37
sV\u65e5\u6d88
p5935
I52
sV\u548c\u4e0a
p5936
I26
sV\u6ca1\u4ec0
p5937
I21
sV\u4e0a\u56fe
p5938
I53
sV\u6218\u672f
p5939
I64
sV\u5475\u5475
p5940
I26
sV\u76d8\u51fa
p5941
I66
sV\u4f1a\u51fa
p5942
I43
sV\u697c\u5e02
p5943
I33
sV\u884c\u7ed3
p5944
I20
sV\u4e5f\u5728
p5945
I24
sV\u5173\u53e3
p5946
I58
sV\u591a\u5bb6
p5947
I31
sV\u5927\u8dcc
p5948
I231
sV\u56de\u8865
p5949
I83
sV\u8fd9\u6837
p5950
I940
sV\u65f6\u671f
p5951
I507
sV\u6765\u5206
p5952
I20
sV\u822a\u7a7a
p5953
I25
sV\u7206\u53d1
p5954
I76
sV\u9762\u662f
p5955
I41
sV\u4e3b\u677f
p5956
I375
sV\u573a\u6ca1
p5957
I20
sV\u5728\u54ea
p5958
I51
sV\u521b\u4e0b
p5959
I25
sV\u901f\u4e0b
p5960
I39
sV\u901f\u4e0a
p5961
I59
sV\u89d2\u5f62
p5962
I38
sV\u4f1a\u5f88
p5963
I25
sV\u53d8\u6210
p5964
I27
sV\u5012\u662f
p5965
I34
sV399
p5966
I19
sV\u6784\u6210
p5967
I75
sV\u901a\u9053
p5968
I62
sV\u8fd9\u70b9
p5969
I24
sV\u73af\u6bd4
p5970
I23
sV\u8fd8\u662f
p5971
I681
sV\u5ba2\u89c2
p5972
I32
sV\u80a1\u5206
p5973
I38
sV\u624b\u6e38
p5974
I25
sV\u6062\u590d
p5975
I39
sV\u6d88\u5931
p5976
I19
sV\u5f39\u8fd8
p5977
I24
sV\u4e9b\u80a1
p5978
I33
sV\u957f\u4e0b
p5979
I26
sV\u957f\u4e0a
p5980
I33
sV\u7126\u70b9
p5981
I29
sV\u9886\u6da8
p5982
I161
sV\u8d38\u6613
p5983
I50
sV\u8981\u95fb
p5984
I44
sV\u4e00\u65b9
p5985
I100
sV\u597d\u6d88
p5986
I77
sV\u62e9\u65b9
p5987
I30
sV\u6587\u5316
p5988
I41
sV\u5c14\u7cfb
p5989
I53
sV\u65b0\u9ad8
p5990
I425
sV\u4e0a\u9650
p5991
I28
sV\u5bfb\u627e
p5992
I40
sV\u5929\u65e9
p5993
I90
sV\u7cbe\u5f69
p5994
I27
sV\u591a\u6982
p5995
I27
sV\u540e\u8d70
p5996
I19
sV\u6211\u5728
p5997
I112
sV\u6700\u9ad8
p5998
I189
sV\u9886\u8dcc
p5999
I100
sVcpi
p6000
I37
sV\u4e00\u65e6
p6001
I62
sV\u7b49\u677f
p6002
I86
sV\u60c5\u7eea
p6003
I81
sV\u9006\u8f6c
p6004
I20
sV\u8fd9\u6761
p6005
I20
sV\u671f\u8d70
p6006
I21
sV\u5927\u8d44
p6007
I36
sV\u4e00\u65f6
p6008
I34
sV\u5fc5\u8bfb
p6009
I43
sV\u573a\u5185
p6010
I23
sV\u7b26\u5408
p6011
I66
sV\u8bf4\u5927
p6012
I23
sV\u9ad8\u8d70
p6013
I95
sV\u76d8\u5171
p6014
I36
sV\u8bc1\u7efc
p6015
I62
sV\u4e2a\u5e02
p6016
I37
sV\u8ba9\u4eba
p6017
I75
sV\u8ddf\u8fdb
p6018
I27
sV\u4e86\u5417
p6019
I45
sV\u53d1\u6539
p6020
I29
sV\u80a1\u6da8
p6021
I57
sV\u901a\u8fc7
p6022
I91
sV\u5343\u4e07
p6023
I21
sV\u6211\u60f3
p6024
I37
sV\u65e2\u7136
p6025
I29
sV\u5148\u89c9
p6026
I42
sV\u6761\u4ef6
p6027
I85
sV\u5e94\u7ea7
p6028
I52
sV\u884c\u7b49
p6029
I33
sV\u5728\u6b64
p6030
I41
sV\u603b\u7ed3
p6031
I31
sV\u7ecf\u9a8c
p6032
I31
sV\u7cfb\u5217
p6033
I44
sV\u51c0\u8d44
p6034
I24
sV\u5e02\u4e00
p6035
I21
sV\u6e2f\u53e3
p6036
I41
sV\u901a\u4fe1
p6037
I43
sV\u4e09\u4ef7
p6038
I39
sV\u62d6\u7d2f
p6039
I52
sV\u56fd\u5185
p6040
I58
sV\u6536\u5e02
p6041
I24
sV\u662f\u5bf9
p6042
I84
sV\u52a0\u5feb
p6043
I32
sV\u573a\u5316
p6044
I52
sV\u5206\u4eab
p6045
I24
sV\u76d8\u4eca
p6046
I20
sV\u5404\u4f4d
p6047
I255
sV\u76d8\u4ecd
p6048
I20
sV\u4e0d\u65ad
p6049
I133
sV\u8282\u594f
p6050
I94
sV\u56db\u8fde
p6051
I19
sV\u6307\u5c0f
p6052
I47
sV\u636e\u5a92
p6053
I23
sV\u56f4\u5e02
p6054
I29
sV\u6765\u65b0
p6055
I20
sV\u652f\u6491
p6056
I314
sV\u9996\u6b21
p6057
I31
sV\u4f4e\u4e0b
p6058
I37
sV\u7f51\u7ad9
p6059
I20
sV\u7cbe\u795e
p6060
I27
sV\u4e3b\u9898
p6061
I48
sV\u80a1\u8dcc
p6062
I20
sV\u4eba\u5fc3
p6063
I26
sV\u5b9e\u5728
p6064
I40
sV\u62ab\u9732
p6065
I44
sV\u91cd\u70b9
p6066
I115
sV\u5173\u6ce8
p6067
I330
sV\u6bd4\u4e0a
p6068
I63
sV\u60f3\u8c61
p6069
I33
sV\u76d8\u53e3
p6070
I49
sV\u4e86\u5468
p6071
I21
sV\u7eed\u5f3a
p6072
I21
sV\u5bf9\u6bd4
p6073
I52
sV\u76d8\u4e0a
p6074
I166
sV\u76d8\u4e0b
p6075
I57
sV\u6bcf\u5929
p6076
I34
sV\u76d8\u4e0d
p6077
I48
sV\u76d8\u4e00
p6078
I54
sV\u5f88\u5c11
p6079
I23
sV\u843d\u6574
p6080
I19
sV\u5728\u8bf4
p6081
I56
sV\u73b0\u8f83
p6082
I34
sV\u56e0\u5c31
p6083
I19
sV\u4f20\u95fb
p6084
I35
sV\u80a1\u6d3b
p6085
I39
sV\u5927\u5229
p6086
I66
sV\u5fc3\u7814
p6087
I52
sV\u53c8\u51fa
p6088
I23
sV\u4e2d\u7ee7
p6089
I49
sV\u76d8\u4e2d
p6090
I550
sV\u91cf\u9707
p6091
I23
sV\u915d\u917f
p6092
I26
sV\u76d8\u4e24
p6093
I65
sV\u4ee5\u524d
p6094
I28
sV\u5b9a\u80fd
p6095
I46
sV\u6700\u65b0
p6096
I29
sV\u524d\u6211
p6097
I22
sV197
p6098
I29
sV\u6837\u5b50
p6099
I26
sV\u5d29\u6e83
p6100
I25
sV\u8d27\u4e0b
p6101
I60
sV\u8d27\u4e0a
p6102
I69
sV\u6da8\u5e45
p6103
I544
sV\u4e0d\u5c0f
p6104
I47
sV\u9884\u544a
p6105
I29
sV\u5e76\u672a
p6106
I51
sV\u73b0\u8fd9
p6107
I24
sV\u5b63\u5ea6
p6108
I176
sV\u7396\u798f
p6109
I45
sV\u8bf4\u660e
p6110
I207
sV\u80a1\u8d70
p6111
I40
sV\u98ce\u683c
p6112
I55
sV\u518d\u73b0
p6113
I31
sV\u80a1\u6d77
p6114
I110
sV\u4e4b\u95f4
p6115
I72
sV\u7ebf\u7ea7
p6116
I27
sV\u5ff5\u70b9
p6117
I22
sV\u5b9a\u8981
p6118
I25
sV\u5206\u4e4b
p6119
I26
sV\u4e0d\u6539
p6120
I21
sV\u6570\u548c
p6121
I24
sV\u514b\u7efc
p6122
I48
sV\u600e\u4e48
p6123
I146
sV1849
p6124
I145
sV\u662f\u7b2c
p6125
I24
sV\u5d1b\u8d77
p6126
I38
sV\u770b\u5f85
p6127
I109
sVblog_61accd56
p6128
I44
sV\u5927\u725b
p6129
I68
sV\u5168\u90e8
p6130
I41
sV\u524d\u8fd8
p6131
I23
sV\u83b7\u5f97
p6132
I53
sV\u8bf4\u662f
p6133
I67
sV\u6682\u65f6
p6134
I85
sV\u4e09\u4e2a
p6135
I115
sV\u4e09\u4e2d
p6136
I61
sV\u66f4\u52a0
p6137
I83
sV\u4e2d\u7ebf
p6138
I37
sV\u7ea6\u539f
p6139
I35
sV\u6708\u5f00
p6140
I29
sV\u63a7\u5236
p6141
I57
sV\u573a\u51fa
p6142
I20
sV\u4e09\u8fde
p6143
I60
sV\u7535\u5f71
p6144
I26
sV\u56f4\u7ed5
p6145
I97
sV\u4f46\u8fd9
p6146
I51
sV\u73b0\u4e00
p6147
I81
sV\u4e00\u822c
p6148
I75
sV\u662f\u9ad8
p6149
I39
sV\u73b0\u4e0a
p6150
I25
sV\u514b\u5f3a
p6151
I48
sV\u4ef7\u503c
p6152
I211
sV\u53cd\u5f39
p6153
I1009
sV\u5b9e\u9645
p6154
I150
sV\u73b0\u4e0d
p6155
I37
sV\u53e6\u4e00
p6156
I65
sV\u4f60\u6700
p6157
I477
sV\u4f4e\u4f4d
p6158
I102
sV\u5904\u5728
p6159
I29
sV\u5468\u521d
p6160
I58
sV\u51fa\u65b0
p6161
I30
sV\u63a2\u4f4e
p6162
I26
sV\u4f5c\u4e3a
p6163
I100
sV\u4e4b\u540e
p6164
I514
sV\u96be\u5f97
p6165
I22
sV\u6210\u6307
p6166
I195
sV\u54c1\u8336
p6167
I51
sV\u6211\u89c9
p6168
I19
sV\u6807\u666e
p6169
I49
sV\u5c3e\u5e02
p6170
I84
sV\u5e74\u6765
p6171
I43
sV\u9ad8\u5f00
p6172
I465
sV\u751a\u81f3
p6173
I141
sV\u63d0\u9632
p6174
I19
sV\u56fe\u4e3a
p6175
I26
sV\u5229\u7a7a
p6176
I207
sV\u671f\u53d8
p6177
I28
sV\u662f\u4f4e
p6178
I23
sV\u6fc0\u4e0b
p6179
I27
sV\u5ea6\u770b
p6180
I28
sV\u76d8\u8fd8
p6181
I46
sV\u6628\u5929
p6182
I490
sV\u76d8\u8fde
p6183
I19
sV\u56fe\u4e2d
p6184
I25
sV\u4f4e\u4f30
p6185
I36
sV\u4e2a\u80a1
p6186
I977
sV\u540e\u53c8
p6187
I30
sV\u6d66\u53d1
p6188
I59
sV\u903b\u8f91
p6189
I48
sV\u7ebf\u9644
p6190
I37
sV\u90a3\u79cd
p6191
I24
sV\u6628\u591c
p6192
I39
sV\u7559\u4e0b
p6193
I32
sV\u5f00\u653e
p6194
I32
sV\u5145\u6ee1
p6195
I23
sV\u51b2\u51fb
p6196
I144
sV\u56fe\u4e0a
p6197
I96
sV\u5b98\u65b9
p6198
I22
sV\u5373\u53ef
p6199
I20
sV\u591a\u65b9
p6200
I104
sV\u7ea2\u5468
p6201
I27
sV\u6216\u8bb8
p6202
I51
sV\u610f\u5916
p6203
I53
sV\u4e0a\u653b
p6204
I204
sV\u518d\u521b
p6205
I94
sV\u5b9e\u76d8
p6206
I73
sV\u6c14\u52bf
p6207
I21
sV\u56e0\u7d20
p6208
I159
sV\u666e\u904d
p6209
I58
sV\u4e2d\u5fc3
p6210
I27
sV\u8bf4\u8fd9
p6211
I21
sV\u8fbe\u5230
p6212
I77
sV\u53f2\u9ad8
p6213
I22
sV\u75af\u72c2
p6214
I74
sV\u6c42\u53ca
p6215
I71
sV\u56fd\u503a
p6216
I171
sV\u76d8\u4f1a
p6217
I34
sV\u5165\u5fae
p6218
I50
sV\u73b0\u4e86
p6219
I366
sV\u91cd\u65b0
p6220
I68
sV\u7d27\u5f20
p6221
I31
sV\u4e00\u5b9a
p6222
I258
sV\u670d\u52a1
p6223
I78
sV\u4f4e\u8ff7
p6224
I53
sV\u7406\u7531
p6225
I62
sV\u6574\u56fa
p6226
I61
sV\u539f\u6cb9
p6227
I59
sV\u4f4f\u4e86
p6228
I24
sV\u6da8\u5927
p6229
I21
sV\u6709\u8272
p6230
I171
sV\u4f30\u503c
p6231
I80
sV\u80a1\u6c11
p6232
I190
sV\u4e00\u5bb6
p6233
I24
sV\u8981\u8bf4
p6234
I27
sV\u66fe\u7ecf
p6235
I48
sV\u4ed4\u7ec6
p6236
I22
sV\u5408\u8ba1
p6237
I22
sV\u591a\u6570
p6238
I131
sV\u54cd\u529b
p6239
I37
sV\u6ce2\u6d9b
p6240
I52
sV\u4e48\u591a
p6241
I21
sV\u51b3\u5b9a
p6242
I107
sV\u76d8\u4f4e
p6243
I99
sV\u5c31\u5e94
p6244
I490
sV\u80fd\u7a7f
p6245
I29
sV\u6240\u6709
p6246
I190
sV\u73af\u5883
p6247
I84
sV\u4e0d\u6da8
p6248
I34
sV\u4e0a\u884c
p6249
I193
sV\u8fde\u8dcc
p6250
I21
sV\u5341\u5b57
p6251
I142
sV\u8d37\u6b3e
p6252
I112
sV\u4e0b\u65b9
p6253
I79
sV\u5e03\u6797
p6254
I47
sV\u4e5f\u8981
p6255
I25
sV\u5185\u90e8
p6256
I20
sV\u4e25\u91cd
p6257
I67
sV\u540e\u534a
p6258
I22
sV\u5165\u660e
p6259
I55
sV\u7ecf\u6709
p6260
I20
sV\u51b2\u5173
p6261
I19
sV\u5b50\u80a1
p6262
I36
sV\u52a8\u5411
p6263
I28
sV\u6559\u6388
p6264
I20
sV\u6b65\u5206
p6265
I55
sV\u540e\u5f00
p6266
I42
sV\u77ac\u95f4
p6267
I63
sV\u6bd4\u4f8b
p6268
I24
sV\u957f\u5047
p6269
I125
sV\u5c11\u670b
p6270
I30
sV\u671f\u6743
p6271
I28
sV\u6bd4\u8f83
p6272
I240
sV\u7efc\u5408
p6273
I101
sV\u5934\u6392
p6274
I19
sV\u6bd4\u6628
p6275
I48
sV\u8bc1\u6307
p6276
I360
sV\u5151\u73b0
p6277
I19
sV\u5904\u7406
p6278
I31
sV\u4ec0\u4e48
p6279
I534
sV\u72d7\u86cb
p6280
I267
sV\u4ecd\u5728
p6281
I45
sV\u5927\u70b9
p6282
I23
sV\u70b9\u5de6
p6283
I97
sV\u8bf4\u4e86
p6284
I63
sV\u573a\u6709
p6285
I33
sV\u5173\u4e8e
p6286
I110
sV\u95ee\u6211
p6287
I41
sV\u65e0\u8bba
p6288
I85
sV\u5965\u5df4
p6289
I23
sV\u8003\u8651
p6290
I53
sV\u70b9\u5df2
p6291
I21
sV\u8fd8\u7b97
p6292
I29
sV\u9010\u6e10
p6293
I58
sV\u620f\u6d4b
p6294
I483
sV\u4e8b\u60c5
p6295
I77
sV\u5e95\u7ebf
p6296
I47
sV\u540e\u7ee7
p6297
I32
sV\u7b2c\u56db
p6298
I22
sV\u9ad8\u70b9
p6299
I326
sV\u53ea\u6709
p6300
I145
sV\u51fa\u9ad8
p6301
I23
sV\u5929\u5802
p6302
I60
sV\u51b2\u52a8
p6303
I32
sV\u57fa\u672c
p6304
I388
sV\u4f46\u6211
p6305
I31
sV\u5229\u597d
p6306
I374
sV\u516c\u5f00
p6307
I29
sV\u4e2d\u5c0f
p6308
I365
sV\u5f00\u4f4e
p6309
I96
sV\u662f\u5982
p6310
I56
sV\u7ebf\u5c31
p6311
I23
sV\u4e24\u6b21
p6312
I23
sV\u8dcc\u7834
p6313
I179
sV\u5e45\u9ad8
p6314
I112
sVst
p6315
I24
sV\u5927\u70ed
p6316
I19
sV\u6dd8\u91d1
p6317
I129
sV\u4e0a\u8bc1
p6318
I527
sV\u5927\u90e8
p6319
I59
sV\u590d\u4e86
p6320
I20
sV\u533b\u7597
p6321
I34
sV\u5de5\u7a0b
p6322
I28
sV\u5ea6\u51fa
p6323
I32
sV\u767d\u9152
p6324
I37
sV\u7eed\u53cd
p6325
I35
sV\u4e4b\u574a
p6326
I51
sV\u6001\u5ea6
p6327
I89
sV\u7a33\u6b65
p6328
I19
sV\u5e26\u9886
p6329
I38
sV\u5c06\u7ee7
p6330
I39
sV\u53ca\u4ea4
p6331
I71
sV\u80a1\u8fd8
p6332
I34
sV\u9500\u552e
p6333
I32
sV\u5904\u548c
p6334
I121
sV\u5e73\u53f0
p6335
I55
sV\u666f\u4e0b
p6336
I54
sV\u54b1\u4eec
p6337
I23
sV\u4e8e\u80a1
p6338
I19
sV\u2474\u65e9
p6339
I22
sV\u5185\u5e55
p6340
I29
sV\u8df3\u9ad8
p6341
I28
sV\u540e\u6307
p6342
I35
sV\u4f26\u6566
p6343
I31
sV\u677f\u5927
p6344
I54
sV\u540e\u51b2
p6345
I23
sV\u9ec4\u91d1
p6346
I217
sV\u573a\u518d
p6347
I28
sV\u5982\u671f
p6348
I43
sV\u6cd5\u6a21
p6349
I30
sV\u80fd\u591f
p6350
I107
sV\u610f\u601d
p6351
I50
sV\u6ede\u6da8
p6352
I38
sV\u517b\u8001
p6353
I53
sV\u4e1a\u677f
p6354
I1884
sV\u671b\u5927
p6355
I20
sV\u6216\u6709
p6356
I25
sV\u5267\u70c8
p6357
I30
sV\u4f1a\u600e
p6358
I36
sV\u8f6c\u6982
p6359
I27
sV\u4ecb\u5165
p6360
I61
sV\u6240\u840e
p6361
I24
sV\u76d8\u6da8
p6362
I47
sV\u4e86\u56de
p6363
I26
sV\u95ee\u9898
p6364
I342
sV\u662f\u591a
p6365
I31
sV\u6709\u610f
p6366
I41
sV\u5c31\u5728
p6367
I58
sV\u683c\u8f6c
p6368
I22
sV\u6269\u5927
p6369
I45
sV\u4e00\u5927
p6370
I92
sV\u591a\u662f
p6371
I35
sV\u662f\u592a
p6372
I22
sV\u662f\u5927
p6373
I133
sV\u5546\u80a1
p6374
I46
sV\u8fbe\u514b
p6375
I51
sV\u4eca\u5929
p6376
I1454
sV\u6587\u4e2d
p6377
I46
sV\u4e2a\u6307
p6378
I20
sV\u96c6\u4e2d
p6379
I50
sV\u5236\u9020
p6380
I71
sV\u975e\u519c
p6381
I19
sV\u6211\u8bf4
p6382
I58
sV\u4e0b\u6765
p6383
I129
sV\u5df4\u83f2
p6384
I45
sV\u98d9\u5347
p6385
I35
sV\u4e3b\u5bfc
p6386
I40
sV\u5929\u5929
p6387
I25
sV\u8bc1\u6210
p6388
I37
sV\u53ea\u662f
p6389
I178
sV\u56fd\u52a1
p6390
I106
sV\u675f\u4e86
p6391
I25
sV\u4f4e\u8d70
p6392
I98
sV\u671f\u5185
p6393
I70
sV\u5f62\u52bf
p6394
I44
sV\u90a3\u6837
p6395
I38
sV\u5929\u5927
p6396
I210
sV\u5931\u5730
p6397
I25
sV\u5b58\u5728
p6398
I101
sV\u4e0b\u6740
p6399
I21
sV\u540e\u518d
p6400
I60
sV\u4e00\u5929
p6401
I127
sV\u94f6\u884c
p6402
I860
sV\u6784\u7ebf
p6403
I19
sV\u6b27\u7f8e
p6404
I35
sV\u4e5f\u6b63
p6405
I19
sV2115
p6406
I36
sV\u8fd0\u884c
p6407
I244
sV\u8dcc\u5927
p6408
I20
sV\u6da8\u8dcc
p6409
I165
sV\u76d8\u8dcc
p6410
I56
sV\u4ea7\u677f
p6411
I55
sV\u575a\u6301
p6412
I71
sV\u6574\u540e
p6413
I32
sV\u540e\u51fa
p6414
I60
sV\u683c\u4ee5
p6415
I39
sV\u6211\u8ba4
p6416
I29
sV\u80a1\u4ef7
p6417
I202
sV\u6574\u7406
p6418
I337
sV\u9ad8\u6f6e
p6419
I19
sV\u91cd\u677f
p6420
I77
sV\u80a1\u4efd
p6421
I72
sV\u505c\u6f6e
p6422
I19
sV\u52bf\u611f
p6423
I30
sV\u8d70\u5f31
p6424
I50
sV\u542f\u52a8
p6425
I95
sV\u8d70\u5f3a
p6426
I109
sV\u53c8\u5230
p6427
I20
sV\u80a1\u4eca
p6428
I36
sV\u80a1\u4ecd
p6429
I20
sV\u80fd\u840e
p6430
I20
sV\u7a7a\u6982
p6431
I22
sV\u91d1\u5c5e
p6432
I82
sV\u5f88\u5feb
p6433
I33
sV\u73b0\u8c61
p6434
I99
sV\u573a\u505a
p6435
I19
sV\u89c1\u9876
p6436
I52
sV\u538b\u529b
p6437
I318
sV\u6570\u5728
p6438
I59
sV\u6536\u655b
p6439
I30
sV\u5c11\u6570
p6440
I20
sV\u96c6\u4f53
p6441
I114
sV\u5f00\u4e86
p6442
I33
sV\u8bf4\u4e0d
p6443
I22
sV\u4f1a\u518d
p6444
I23
sV\u51e0\u4e2a
p6445
I107
sV\u80a1\u6536
p6446
I32
sV\u80a1\u4e2d
p6447
I43
sV\u7ebf\u5df2
p6448
I26
sV\u8bbe\u8ba1
p6449
I19
sV\u544a\u8bc9
p6450
I41
sV\u5386\u4e86
p6451
I36
sV\u5982\u679c
p6452
I504
sV\u8be5\u8bf4
p6453
I33
sV\u540d\u4e0a
p6454
I119
sV\u6d41\u884c
p6455
I22
sV\u516c\u5e03
p6456
I129
sV\u5c40\u9762
p6457
I49
sV\u80a1\u4e00
p6458
I20
sV\u75b2\u5f31
p6459
I23
sV\u9ec4\u7ebf
p6460
I22
sV\u5341\u5929
p6461
I23
sV\u80a1\u4e0b
p6462
I20
sV\u80a1\u4e0a
p6463
I58
sV\u80a1\u4e0d
p6464
I44
sV\u79ef\u8ba1
p6465
I39
sV\u5347\u7ea7
p6466
I33
sV\u6fc0\u52b1
p6467
I38
sV\u8fdb\u5165
p6468
I576
sV\u6ce2\u6f9c
p6469
I27
sV\u8d44\u673a
p6470
I21
sV\u6708\u80a1
p6471
I25
sV\u80a1\u4e1c
p6472
I56
sV\u573a\u70ed
p6473
I29
sV\u8361\u683c
p6474
I28
sV\u591a\u6708
p6475
I21
sV\u624b\u6cd5
p6476
I23
sV\u6743\u91cd
p6477
I373
sV\u591a\u670b
p6478
I30
sV\u8ff9\u8c61
p6479
I87
sV\u4e0d\u662f
p6480
I404
sV\u5e74\u4e00
p6481
I19
sV\u4e60\u60ef
p6482
I49
sV\u53ef\u89c1
p6483
I40
sV\u4e00\u79cd
p6484
I134
sV\u7b49\u7b49
p6485
I61
sV\u529b\u5728
p6486
I21
sVmacd
p6487
I73
sV\u538b\u5236
p6488
I59
sV\u70b9\u5c31
p6489
I36
sV\u6a21\u4eff
p6490
I32
sV\u89c2\u671b
p6491
I37
sV\u6f14\u53d8
p6492
I41
sV\u4e5f\u8bb8
p6493
I49
sV\u4e07\u4ebf
p6494
I58
sV\u5931\u53bb
p6495
I24
sV\u4e0d\u660e
p6496
I35
sV\u51e0\u4e4e
p6497
I76
sV\u6c11\u751f
p6498
I50
sV\u84c4\u52bf
p6499
I49
sV\u6307\u5fae
p6500
I19
sV\u76d8\u8d70
p6501
I179
sV\u6240\u653e
p6502
I37
sV\u80a1\u4e5f
p6503
I53
sV\u4e70\u80a1
p6504
I32
sV\u4f11\u6574
p6505
I45
sV\u573a\u5728
p6506
I62
sV\u8005\u8bf4
p6507
I20
sV\u4ece\u76ee
p6508
I24
sV\u4e8e\u662f
p6509
I57
sV\u8981\u4e48
p6510
I21
sV\u4e2a\u65f6
p6511
I27
sV\u622a\u81f3
p6512
I153
sV\u65e5\u65e9
p6513
I30
sV\u4ecd\u7136
p6514
I159
sV\u5230\u4e86
p6515
I299
sV\u4ea4\u6240
p6516
I43
sV\u743c\u65af
p6517
I60
sV\u6708\u6700
p6518
I26
sV\u6709\u5f71
p6519
I34
sV\u6625\u5c31
p6520
I485
sV\u5348\u8bc4
p6521
I31
sV\u878d\u8d44
p6522
I177
sV\u7edd\u5bf9
p6523
I49
sV\u8dcc\u5e45
p6524
I364
sV\u6d41\u52a8
p6525
I21
sV\u65e5\u4e4b
p6526
I19
sV\u4e2d\u76f4
p6527
I24
sV\u5c40\u90e8
p6528
I61
sV\u6b21\u4e0a
p6529
I34
sV\u7136\u4e0d
p6530
I53
sV\u8fd0\u4f5c
p6531
I61
sV\u4ece\u76d8
p6532
I27
sV\u6708\u672b
p6533
I22
sV\u4e0a\u6da8
p6534
I1459
sV\u63d0\u5347
p6535
I31
sV\u5b50\u5546
p6536
I20
sV\u8f6c\u8f7d
p6537
I243
sV\u52b1\u8bed
p6538
I30
sV\u77e5\u9053
p6539
I148
sV\u65e5\u4e2d
p6540
I29
sV\u505a\u64cd
p6541
I31
sV\u592e\u884c
p6542
I93
sV\u4e2a\u65b9
p6543
I27
sV\u6790\u76f4
p6544
I29
sV\u662f\u5f88
p6545
I80
sV\u65e5\u4e24
p6546
I65
sV\u4f55\u65f6
p6547
I37
sV\u8981\u4e0d
p6548
I24
sV\u96f6\u552e
p6549
I22
sV\u52bf\u662f
p6550
I38
sV\u786e\u5b9a
p6551
I83
sV\u9ad8\u56de
p6552
I208
sV\u786e\u5b9e
p6553
I67
sV\u6316\u6398
p6554
I38
sV\u4f46\u4e5f
p6555
I24
sV\u5e02\u8fd8
p6556
I23
sV\u8d44\u6e90
p6557
I100
sV\u6d17\u76d8
p6558
I73
sV\u7eed\u653e
p6559
I20
sV\u4e0e\u64cd
p6560
I52
sV\u65e5\u4e0b
p6561
I20
sV\u65e5\u4e0a
p6562
I76
sV\u8d44\u4ea7
p6563
I130
sV\u4e8c\u64cd
p6564
I27
sV\u7f51\u7edc
p6565
I100
sV\u5927\u76d8
p6566
I2897
sV\u5bf9\u8fd9
p6567
I30
sV\u7838\u76d8
p6568
I20
sV\u6613\u5468
p6569
I19
sV\u8d44\u4eba
p6570
I24
sV\u8db3\u4ee5
p6571
I19
sV\u5f53\u524d
p6572
I231
sV\u5468\u5747
p6573
I29
sV\u6001\u52bf
p6574
I140
sV\u5e45\u5c0f
p6575
I40
sV\u5927\u9634
p6576
I35
sV\u91cd\u80a1
p6577
I181
sV\u5c31\u50cf
p6578
I37
sV\u65e5\u4ee5
p6579
I21
sV\u8868\u73b0
p6580
I421
sV\u6caa\u6df1
p6581
I425
sV\u51fa\u53e3
p6582
I21
sV\u5230\u4e00
p6583
I64
sV\u91d1\u5ba2
p6584
I102
sV\u4ea7\u80a1
p6585
I61
sV\u7ecf\u5e38
p6586
I37
sV\u987d\u5f3a
p6587
I25
sV\u90fd\u51fa
p6588
I20
sV\u51fa\u53f0
p6589
I58
sV\u4f53\u62a5
p6590
I39
sV\u4f4d\u9707
p6591
I29
sV\u5728\u8fd9
p6592
I140
sV\u4e00\u5ea6
p6593
I176
sV\u7eed\u7ef4
p6594
I26
sV\u673a\u6784
p6595
I163
sV\u672c\u662f
p6596
I41
sV\u56fd\u8d44
p6597
I22
sV\u90fd\u4f1a
p6598
I51
sV\u771f\u662f
p6599
I24
sV\u7c7b\u770b
p6600
I37
sV\u91cf\u5316
p6601
I46
sV\u4e00\u7ebf
p6602
I90
sV\u6709\u671b
p6603
I242
sV\u5206\u5de6
p6604
I19
sV\u5c31\u7b97
p6605
I27
sV\u5e45\u5c45
p6606
I51
sV\u4ea7\u80fd
p6607
I25
sV\u62d0\u70b9
p6608
I23
sV\u62c5\u5fc3
p6609
I67
sV\u623f\u5730
p6610
I159
sV\u5927\u91cf
p6611
I30
sV\u6709\u670b
p6612
I36
sV\u7ec8\u4e8e
p6613
I79
sV\u662f\u6301
p6614
I21
sV\u5e02\u9ad8
p6615
I21
sV\u51fa\u73b0
p6616
I1110
sV\u6b7b\u53c9
p6617
I39
sV\u7ef4\u6301
p6618
I190
sV\u79c1\u4fe1
p6619
I37
sV\u8fd0\u8f93
p6620
I41
sV\u4f1a\u662f
p6621
I34
sV\u4e8e\u6bcf
p6622
I29
sV\u5b9e\u73b0
p6623
I74
sV\u53ef\u4ee5
p6624
I592
sV\u4e0a\u6d77
p6625
I415
sV\u9732\u51fa
p6626
I28
sV\u4f1a\u5927
p6627
I33
sV\u8bf8\u591a
p6628
I21
sV\u662f\u5f53
p6629
I27
sV\u60ac\u5ff5
p6630
I28
sV\u5341\u5e74
p6631
I43
sV\u7ebf\u5927
p6632
I28
sV\u5e74\u62a5
p6633
I22
sV\u4e5f\u6ca1
p6634
I66
sV\u6da8\u662f
p6635
I29
sV\u80c6\u8fd0
p6636
I51
sV\u90a3\u4e2a
p6637
I55
sV\u4e00\u5f00
p6638
I21
sV\u786e\u7acb
p6639
I37
sV\u4e8e\u672c
p6640
I146
sV\u9053\u743c
p6641
I60
sV\u9876\u90e8
p6642
I29
sV\u7ebf\u5f62
p6643
I27
sV\u4fe1\u606f
p6644
I225
sV\u548c\u5bb6
p6645
I111
sV\u72b6\u51b5
p6646
I34
sV\u65f6\u4e5f
p6647
I29
sV\u4e0d\u80fd
p6648
I236
sV\u770b\u7a7a
p6649
I44
sV\u6837\u7efd
p6650
I484
sV\u662f\u65e0
p6651
I21
sV\u597d\u5728
p6652
I32
sV\u6210\u672c
p6653
I57
sV\u6570\u5173
p6654
I76
sV\u4e00\u5f20
p6655
I21
sV\u53c8\u8981
p6656
I34
sV\u4e0b\u5927
p6657
I23
sV\u77e5\u5148
p6658
I42
sV\u5bf9\u4e8e
p6659
I333
sV\u5e73\u9759
p6660
I51
sV\u603b\u662f
p6661
I41
sV\u65e5\u548c
p6662
I23
sV\u5230\u8fbe
p6663
I19
sV\u82cf\u5b81
p6664
I39
sV\u5546\u677f
p6665
I33
sV\u5728\u4e4b
p6666
I24
sV\u8bf4\u4e00
p6667
I26
sV\u5929\u5f00
p6668
I43
sV\u7136\u4f1a
p6669
I19
sV\u5fc5\u7136
p6670
I45
sV\u52a8\u533a
p6671
I21
sV\u9053\u7406
p6672
I27
sV\u7eff\u8272
p6673
I25
sV\u63d0\u524d
p6674
I96
sV\u5728\u4e3b
p6675
I19
sV\u63d0\u5230
p6676
I46
sV\u5e95\u662f
p6677
I25
sV\u5e94\u5bf9
p6678
I74
sV\u5230\u8fd9
p6679
I41
sV\u6da8\u5bb6
p6680
I19
sV\u5e02\u4eca
p6681
I24
sV\u5728\u4e2d
p6682
I54
sV\u677f\u7ee7
p6683
I20
sV\u5728\u4e24
p6684
I22
sV\u6709\u8d44
p6685
I24
sV\u5e02\u4ee5
p6686
I29
sV\u90a3\u4e48
p6687
I335
sV\u7ebf\u6709
p6688
I28
sV\u4e1a\u80a1
p6689
I24
sV\u6574\u5230
p6690
I22
sV\u884c\u8d8b
p6691
I23
sV\u5728\u4e0a
p6692
I156
sV\u5728\u4e0b
p6693
I40
sV\u8bbe\u7acb
p6694
I31
sV\u6cbb\u7406
p6695
I24
sV\u52bf\u6709
p6696
I45
sV\u65e0\u6cd5
p6697
I86
sV\u5728\u4e00
p6698
I81
sV\u9634\u4e0b
p6699
I19
sV\u5f88\u591a
p6700
I295
sV\u7ec8\u8fd8
p6701
I20
sV\u5bf9\u4e2d
p6702
I31
sV\uff0b\u52e4
p6703
I51
sV\u5e02\u4e0d
p6704
I36
sV\u8fd8\u5c06
p6705
I34
sV\u5e02\u4e0a
p6706
I39
sV\u5e02\u4e0b
p6707
I33
sV\u7ffb\u7ea2
p6708
I64
sV\u6df1\u5e02
p6709
I43
sV\u89c1\u5e95
p6710
I33
sV\u5149\u4f0f
p6711
I23
sV\u589e\u91cf
p6712
I23
sV\u4f2f\u5357
p6713
I27
sV\u8981\u8fd8
p6714
I20
sV\u77ed\u671f
p6715
I368
sV\u8fc7\u7a0b
p6716
I151
sV\u6570\u91cf
p6717
I70
sV\u4e0d\u8981
p6718
I74
sV\u5f3a\u4e8e
p6719
I32
sV\u8ba9\u8d22
p6720
I30
sV\u751f\u6d3b
p6721
I30
sV\u524d\u6700
p6722
I66
sV\u80a1\u6807
p6723
I51
sV\u4eca\u5e74
p6724
I197
sV\u5e02\u4e2d
p6725
I39
sV\u5e02\u4e2a
p6726
I40
sV\u540e\u9707
p6727
I37
sV\u5728\u4eca
p6728
I57
sV\u79d1\u6280
p6729
I87
sV\u65b0\u80a1
p6730
I93
sV\u529b\u5ea6
p6731
I159
sV\u5b8c\u6210
p6732
I92
sV\u90fd\u4e0d
p6733
I71
sV\u524d\u671f
p6734
I155
sV\u79c1\u4eba
p6735
I33
sV\u5c55\u5f00
p6736
I97
sV\u53bb\u4e86
p6737
I45
sV\u524d\u6765
p6738
I24
sV\u53ea\u80fd
p6739
I84
sV\u4f1a\u6709
p6740
I167
sV\u7eed\u4e24
p6741
I38
sV\u80a1\u8868
p6742
I46
sV\u540e\u9762
p6743
I50
sV\u80a1\u4e3a
p6744
I25
sV\u662f\u5e02
p6745
I61
sV\u9886\u57df
p6746
I31
sV\u4ee5\u5356
p6747
I39
sV\u80a1\u53ef
p6748
I21
sV\u65b9\u653f
p6749
I25
sV\u6709\u660e
p6750
I23
sV\u671f\u5747
p6751
I27
sV\u5e02\u4e5f
p6752
I21
sV\u6570\u518d
p6753
I38
sV\u968f\u540e
p6754
I149
sV\u672c\u6765
p6755
I31
sV\u5f88\u597d
p6756
I30
sV\u8fdb\u573a
p6757
I24
sV\u4ee3\u7801
p6758
I38
sV\u5578\u6781
p6759
I48
sV\u80a1\u884c
p6760
I84
sV\u4e86\u51e0
p6761
I23
sV\u5047\u65e5
p6762
I20
sV\u5728\u4e8e
p6763
I57
sV\u5927\u53d8
p6764
I19
sV\u7f29\u91cf
p6765
I184
sV\u5206\u6b67
p6766
I28
sV\u7136\u8fd8
p6767
I25
sV\u5ba2\u539f
p6768
I469
sV\u5728\u4e86
p6769
I37
sV\u793a\u4e86
p6770
I20
sV\u8981\u6c42
p6771
I147
sV\u60c5\u6709
p6772
I32
sV\u771f\u5b9e
p6773
I19
sV\u5929\u5c31
p6774
I36
sV\u4e86\u521b
p6775
I20
sV\u5356\u4e8c
p6776
I39
sV\u4e00\u5c0f
p6777
I31
sV\u6b32\u671b
p6778
I43
sV\u7bc7\u6587
p6779
I43
sV\u751f\u4e86
p6780
I38
sV\u7ea7\u522b
p6781
I144
sV\u6211\u4eec
p6782
I624
sV\u770b\u597d
p6783
I81
sV\u662f\u65f6
p6784
I23
sV\u526f\u4ea7
p6785
I30
sV\u80fd\u65e9
p6786
I41
sV\u5e45\u5ea6
p6787
I149
sV\u6708\u6536
p6788
I32
sV\u660e\u4e86
p6789
I50
sV\u6709\u65f6
p6790
I32
sV\u751f\u4ea7
p6791
I22
sV\u6765\u8bb2
p6792
I26
sV\u5230\u5927
p6793
I27
sV\u4e0d\u5bb9
p6794
I36
sV\u5bf9\u51b2
p6795
I29
sV\u5f88\u9ad8
p6796
I26
sV\u770b\u5927
p6797
I30
sV\u56fd\u77f3
p6798
I46
sV\u540e\u8ba4
p6799
I21
sV\u4ee5\u5927
p6800
I29
sV\u4e3b\u7ebf
p6801
I63
sV\u677f\u5df2
p6802
I25
sV\u7a0b\u4e2d
p6803
I58
sV\u516d\u6708
p6804
I24
sV\u4e5f\u4e0d
p6805
I157
sV\u8005\u5fae
p6806
I48
sV\u5185\u5bb9
p6807
I43
sV\u6280\u80a1
p6808
I22
sV\u4e24\u8fde
p6809
I19
sV\u6563\u6237
p6810
I165
sV\u9ed1\u9a6c
p6811
I24
sV\u8be1\u5f02
p6812
I29
sV\u65e5\u8c08
p6813
I31
sV\u5238\u5316
p6814
I30
sV\u70b9\u5982
p6815
I24
sV\u8dcc\u540e
p6816
I49
sV\u4e0d\u6392
p6817
I22
sV\u770b\u591a
p6818
I54
sV\u5e73\u6de1
p6819
I20
sV\u5c40\u52bf
p6820
I28
sV\u4f46\u662f
p6821
I449
sV\u5356\u4e00
p6822
I79
sV\u7136\u6ca1
p6823
I35
sV\u4e2a\u677f
p6824
I41
sV\u9ad8\u540e
p6825
I52
sV\u8fd9\u91cc
p6826
I136
sV\u4e0a\u6f14
p6827
I73
sV\u4e8c\u662f
p6828
I70
sV\u8d70\u9ad8
p6829
I75
sV\u4e2d\u9752
p6830
I37
sV\u6765\u662f
p6831
I22
sV\u6307\u9ad8
p6832
I32
sV\u95e8\u7ea2
p6833
I83
sV\u5e86\u8282
p6834
I64
sV\u505a\u597d
p6835
I34
sV\u5b58\u6b3e
p6836
I24
sV\u5927\u5173
p6837
I20
sV\u5de8\u5927
p6838
I51
sV\u600e\u6837
p6839
I45
sV\u8fd9\u51e0
p6840
I50
sV\u9884\u5224
p6841
I27
sV\u5c31\u8fd9
p6842
I22
sV\u6211\u4e5f
p6843
I19
sV\u968f\u7740
p6844
I114
sV\u8d2f\u7a7f
p6845
I25
sV\u867d\u6709
p6846
I20
sV\u7269\u6d41
p6847
I29
sV\u4e3a\u660e
p6848
I22
sV\u8f7d\u4e8e
p6849
I121
sV\u8bbe\u5907
p6850
I45
sV\u6700\u4f4e
p6851
I143
sV\u5e26\u63d0
p6852
I19
sV\u65b0\u63d0
p6853
I152
sV\u52a0\u5927
p6854
I45
sV\u65b9\u662f
p6855
I20
sV\u65e5\u6caa
p6856
I153
sV\u6302\u724c
p6857
I24
sV\u4ef7\u77ed
p6858
I39
sV\u76d8\u80fd
p6859
I20
sV\u81ea\u5df1
p6860
I168
sV\u5b50\u4fe1
p6861
I25
sV\u4ecd\u5c06
p6862
I34
sV\u95f4\u4e0a
p6863
I26
sV\u793a\u5bf9
p6864
I42
sV\u51fb\u67e5
p6865
I471
sV\u8dcc\u53cd
p6866
I32
sV\u4e3b\u5e2d
p6867
I34
sV\u65f6\u7ebf
p6868
I41
sV\u63d0\u9192
p6869
I88
sV\u76d8\u8868
p6870
I29
sV\u6beb\u65e0
p6871
I26
sV\u52e4\u594b
p6872
I51
sV\u6d6a\u535a
p6873
I472
sV\u6709\u653e
p6874
I21
sV\u770b\u51fa
p6875
I30
sV\u903c\u7a7a
p6876
I20
sV\u70b9\u5904
p6877
I25
sV\u6211\u4e00
p6878
I19
sV\u5728\u6d88
p6879
I26
sV\u70b9\u591a
p6880
I20
sV\u4e0a\u8f68
p6881
I55
sV\u6b64\u8fdb
p6882
I59
sV\u4e2a\u670b
p6883
I34
sV\u589e\u52a0
p6884
I104
sV\u4e00\u7cfb
p6885
I22
sV\u6027\u914d
p6886
I51
sV\u6301\u5f3a
p6887
I23
sV\u6211\u4e0d
p6888
I34
sV\u672c\u6587
p6889
I137
sV\u7edd\u5927
p6890
I23
sV\u6d4e\u8f6c
p6891
I23
sV\u5a92\u5a31
p6892
I34
sV\u5b66\u5bb6
p6893
I27
sV\u5047\u671f
p6894
I58
sV\u800c\u662f
p6895
I96
sV\u81f3\u5c11
p6896
I66
sV\u4e09\u89d2
p6897
I44
sV\u5f53\u7136
p6898
I81
sV\u83f2\u7279
p6899
I46
sV\u65e7\u662f
p6900
I19
sV\u80fd\u6536
p6901
I19
sV\u90fd\u6ca1
p6902
I40
sV\u8fd1\u4e24
p6903
I42
sV\u7ea2\u8272
p6904
I25
sV\u8bb0\u8005
p6905
I22
sV\u4e0a\u4e86
p6906
I30
sV\u7ebf\u5206
p6907
I19
sV\u7b49\u5f85
p6908
I85
sV\u63a8\u8fdb
p6909
I43
sV\u793e\u4f1a
p6910
I48
sV\u674e\u514b
p6911
I45
sV\u5272\u65e5
p6912
I29
sV\u53cd\u590d
p6913
I162
sV\u5de5\u5546
p6914
I26
sV\u6301\u7eed
p6915
I262
sV\u5f3a\u8c03
p6916
I83
sV\u9891\u7e41
p6917
I26
sV\u8fd1\u4e00
p6918
I32
sV\u7a00\u571f
p6919
I54
sV\u8bc4\u4f30
p6920
I26
sV\u5c14\u946b
p6921
I30
sV\u4e0a\u4ea4
p6922
I36
sV\u5728\u81ea
p6923
I21
sV\u5e02\u8d44
p6924
I29
sV\u7531\u8d38
p6925
I35
sV\u5f98\u5f8a
p6926
I25
sV\u901f\u56de
p6927
I28
sV\u7a7f\u6234
p6928
I30
sV\u4e24\u4e2a
p6929
I208
sV\u4e5f\u4f1a
p6930
I35
sV\u7ec4\u5408
p6931
I70
sV\u4eba\u58eb
p6932
I46
sV\u4e0b\u632b
p6933
I66
sV\u601d\u7d22
p6934
I52
sV\u8bf1\u591a
p6935
I24
sV\u4f46\u6700
p6936
I33
sV\u5927\u52bf
p6937
I22
sV\u5c0f\u963b
p6938
I21
sV\u9010\u6b65
p6939
I87
sV\u5b57\u661f
p6940
I114
sV\u5c0f\u9634
p6941
I105
sV\u5c0f\u9633
p6942
I132
sV\u7eed\u9ad8
p6943
I19
sV\u884c\u4e86
p6944
I28
sV\u52a8\u529b
p6945
I92
sV\u4e2d\u5927
p6946
I19
sV\u7a7a\u6d88
p6947
I85
sV\u4efb\u4f55
p6948
I72
sV\u56de\u907f
p6949
I23
sV\u80cc\u540e
p6950
I128
sV\u4e2d\u592e
p6951
I55
sV\u63d0\u901f
p6952
I26
sV\u4e4b\u524d
p6953
I233
sV\u4f34\u968f
p6954
I19
sV\u6c34\u6ce5
p6955
I50
sV\u62db\u5546
p6956
I33
sV\u80a1\u6a21
p6957
I51
sV\u548c\u5927
p6958
I36
sV\u6982\u7387
p6959
I233
sV\u6025\u6da8
p6960
I23
sV\u6613\u533a
p6961
I34
sV\u53d6\u6d88
p6962
I30
sV\u589e\u53d1
p6963
I19
sV\u547d\u7ebf
p6964
I50
sV\u6e05\u695a
p6965
I49
sV\u957f\u9633
p6966
I87
sV\u4e2d\u79cb
p6967
I152
sV\u9760\u8fd1
p6968
I28
sV\u6ce2\u6bb5
p6969
I60
sV\u8361\u6574
p6970
I114
sV\u4e0a\u4e0b
p6971
I73
sV\u5728\u6ce2
p6972
I57
sV\u4eec\u4e5f
p6973
I23
sV\u62a5\u6536
p6974
I194
sV\u4e0a\u4e00
p6975
I82
sV\u4f46\u4eca
p6976
I23
sV\u7387\u5927
p6977
I44
sV\u5723\u5730
p6978
I51
sV\u94a2\u94c1
p6979
I59
sV\u8010\u5fc3
p6980
I33
sV\u7279\u5f81
p6981
I142
sV\u5708\u94b1
p6982
I26
sV\u91d1\u989d
p6983
I124
sV\u63a5\u53d7
p6984
I31
sV\u4ea4\u6d41
p6985
I141
sV\u6301\u5e73
p6986
I23
sV\u8be5\u8fd9
p6987
I485
sV\u4f46\u4ece
p6988
I24
sV\u4e0a\u4e2a
p6989
I57
sV\u5c0f\u76d8
p6990
I168
sV\u4e3a\u9996
p6991
I34
sV\u8981\u5728
p6992
I23
sV\u662f\u5c0f
p6993
I39
sV\u4e0b\u63a2
p6994
I169
sV\u767d\u94f6
p6995
I39
sV\u89c4\u5f8b
p6996
I41
sV\u53ec\u5f00
p6997
I46
sV\u4eec\u4e0d
p6998
I46
sV\u652f\u6301
p6999
I83
sV\u4e2a\u662f
p7000
I42
sV\u5b88\u4f4f
p7001
I23
sV\u8361\u6536
p7002
I20
sV\u76f4\u5230
p7003
I20
sV\u884c\u4e3a
p7004
I69
sV\u5e73\u8861
p7005
I36
sV\u6025\u8dcc
p7006
I43
sV\u662f\u77ed
p7007
I33
sV\u6da8\u505c
p7008
I414
sV\u884c\u4e00
p7009
I19
sV\u540e\u5c31
p7010
I29
sV\u6311\u6218
p7011
I37
sV\u8d85\u7ea7
p7012
I40
sV\u6d41\u8f6c
p7013
I74
sV\u56fd\u9645
p7014
I97
sV\u4f01\u7a33
p7015
I124
sV\u4f11\u5e02
p7016
I27
sV\u6807\u80a1
p7017
I32
sV\u7ecf\u7406
p7018
I36
sV\u884c\u4e1a
p7019
I223
sV\u611f\u609f
p7020
I21
sV\u662f\u53cd
p7021
I42
sVgt
p7022
I965
sV\u4e00\u5207
p7023
I42
sV\u663e\u653e
p7024
I23
sV\u53bb\u5e74
p7025
I77
sV\u6536\u4e2d
p7026
I27
sV\u53ca\u64cd
p7027
I32
sV\u80a1\u65b9
p7028
I66
sV\u91d1\u5728
p7029
I22
sV\u80fd\u73af
p7030
I22
sV\u662f\u6295
p7031
I26
sV\u767d\u7ebf
p7032
I29
sV\u662f\u53ef
p7033
I36
sV\u4e86\u5c31
p7034
I20
sV\u5929\u521b
p7035
I30
sV\u770b\u7740
p7036
I23
sV\u8f6c\u6362
p7037
I59
sV\u6240\u4ee5
p7038
I430
sV\u529b\u533a
p7039
I28
sV\u80a1\u658b
p7040
I36
sV\u8d22\u7ecf
p7041
I67
sV\u7231\u597d
p7042
I55
sV\u4f60\u4e0d
p7043
I490
sV\u4f53\u4e0a
p7044
I63
sV\u62a4\u76d8
p7045
I64
sV\u6613\u6240
p7046
I38
sV\u5ff5\u80a1
p7047
I204
sV\u5e0c\u671b
p7048
I110
sV\u5e74\u4e60
p7049
I30
sV\u4e92\u8054
p7050
I137
sV\u5f00\u5c55
p7051
I20
sV\u8d70\u5411
p7052
I38
sV\u6b63\u662f
p7053
I31
sV\u4e00\u7247
p7054
I32
sV\u5728\u521b
p7055
I32
sV\u56de\u5f52
p7056
I37
sV\u81f3\u5356
p7057
I39
sV\u5f53\u5e74
p7058
I21
sV\u91d1\u9762
p7059
I33
sV\u5e74\u4e0a
p7060
I29
sV\u4e0d\u8db3
p7061
I78
sV\u5237\u65b0
p7062
I29
sV\u5e26\u52a8
p7063
I188
sV\u671b\u53ca
p7064
I23
sV\u6570\u5c0f
p7065
I52
sV\u548c\u76f8
p7066
I123
sV\u4e0b\u8c03
p7067
I20
sV\u4ee5\u770b
p7068
I62
sV\u6765\u8d8a
p7069
I90
sV\u770b\u770b
p7070
I97
sV\u5fae\u4fe1
p7071
I22
sV\u9b54\u5492
p7072
I24
sV\u8fc5\u901f
p7073
I33
sV\u4e2d\u9634
p7074
I94
sV\u5e74\u4e2d
p7075
I38
sV\u4e2d\u9633
p7076
I191
sV\u5c11\u4e86
p7077
I35
sV\u65b0\u6d6a
p7078
I528
sV\u65f6\u5019
p7079
I357
sV\u5176\u80cc
p7080
I43
sV\u661f\u671f
p7081
I169
sV\u7ebf\u56fe
p7082
I74
sV\u5165\u4e86
p7083
I26
sV\u535a\u5f08
p7084
I24
sV\u662f\u8fd9
p7085
I106
sV\u5341\u5206
p7086
I36
sV\u5fae\u4f01
p7087
I33
sV\u60c5\u8981
p7088
I78
sV\u8fce\u6765
p7089
I95
sV\u7279\u70b9
p7090
I64
sV\u53ea\u6da8
p7091
I52
sV\u4ea4\u4ef7
p7092
I42
sV\u539f\u6587
p7093
I475
sV\u57fa\u8c03
p7094
I20
sV\u4eba\u5bb6
p7095
I20
sV\u65b9\u6848
p7096
I67
sV\u5728\u4e0d
p7097
I38
sV\u76d8\u662f
p7098
I40
sV\u4eba\u770b
p7099
I24
sV\u6536\u4e8e
p7100
I481
sV\u5f3a\u5f31
p7101
I25
sV\u5b69\u5b50
p7102
I30
sV\u7f5a\u6b3e
p7103
I19
sV\u65e0\u529b
p7104
I21
sV\u60ca\u6d6a
p7105
I52
sV\u5706\u5f27
p7106
I29
sV\u4e2d\u56fd
p7107
I751
sV\u5e74\u4ee5
p7108
I58
sV\u5728\u65b0
p7109
I29
sV\u5229\u7387
p7110
I169
sV3d
p7111
I27
sV\u70b9\u5728
p7112
I29
sV\u5224\u65ad
p7113
I157
sV\u5927\u8bc1
p7114
I191
sV\u65e5\u62a5
p7115
I31
sV\u4f46\u5927
p7116
I21
sV\u8dcc\u52a8
p7117
I22
sV\u80a1\u6570
p7118
I26
sV\u7406\u5c42
p7119
I36
sV\u7834\u4f4d
p7120
I72
sV\u573a\u5bf9
p7121
I36
sV\u8d8a\u6765
p7122
I92
sV\u5b9a\u5468
p7123
I34
sV\u8d44\u6210
p7124
I41
sVsina
p7125
I47
sV\u5b81\u4e91
p7126
I20
sV\u641c\u96c6
p7127
I118
sV\u6025\u62c9
p7128
I19
sV\u5148\u770b
p7129
I36
sV\u7f57\u65af
p7130
I20
sV\u679c\u6ca1
p7131
I20
sV\u6c11\u5e01
p7132
I36
sV\u8f83\u5f3a
p7133
I55
sV\u533a\u57df
p7134
I92
sV\u5177\u4f53
p7135
I43
sV\u5854\u770b
p7136
I99
sV\u76f4\u5728
p7137
I40
sV\u8f83\u5f31
p7138
I21
sV\u7136\u4e0a
p7139
I19
sV\u900f\u9732
p7140
I29
sV\u5206\u6790
p7141
I755
sV\u5927\u5bb6
p7142
I370
sV\u4e8c\u5927
p7143
I57
sV\u5bf9\u5f85
p7144
I30
sV\u76f8\u4fe1
p7145
I63
sV\u516c\u544a
p7146
I30
sV\u72b9\u8c6b
p7147
I32
sV\u8dcc\u4e4b
p7148
I25
sV\u662f\u91cd
p7149
I32
sV\u5b9a\u4f1a
p7150
I21
sVblog
p7151
I47
sV\u662f\u72d7
p7152
I157
sV\u8bf4\u8fc7
p7153
I53
sV\u5408\u6307
p7154
I70
sV\u6839\u957f
p7155
I22
sV\u5927\u5b97
p7156
I24
sV\u884c\u60c5
p7157
I1193
sV\u5219\u662f
p7158
I44
sV\u7b97\u662f
p7159
I69
sV\u7ecf\u5386
p7160
I68
sV\u53ca\u65f6
p7161
I21
sV\u80fd\u529b
p7162
I50
sV\u90a3\u65f6
p7163
I19
sV\u5468\u6709
p7164
I33
sV\u6211\u662f
p7165
I22
sV\u5f97\u5230
p7166
I56
sV\u5728\u4f4e
p7167
I55
sV\u7eed\u840e
p7168
I21
sV\u7b80\u8bc4
p7169
I136
sV\u884c\u80a1
p7170
I292
sV\u5de5\u5177
p7171
I20
sV\u9002\u5408
p7172
I20
sV\u7eb8\u6761
p7173
I23
sV\u95fb\u53d1
p7174
I29
sV\u5e03\u4f1a
p7175
I19
sV\u4e0a\u90fd
p7176
I19
sV\u5904\u7f5a
p7177
I42
sV\u7ebf\u5728
p7178
I43
sV\u7ec8\u6307
p7179
I54
sV\u5929\u7ebf
p7180
I30
sV\u53d9\u5229
p7181
I96
sV\u4f1a\u8bae
p7182
I110
sV\u5929\u5e02
p7183
I79
sV\u4f1a\u8ba9
p7184
I26
sV\u505c\u677f
p7185
I77
sV\u5448\u73b0
p7186
I167
sV\u5728\u6211
p7187
I36
sV\u663e\u8457
p7188
I56
sV\u5229\u76ca
p7189
I24
sV\u73b0\u51fa
p7190
I63
sV\u4eba\u76d8
p7191
I30
sV\u5371\u9669
p7192
I22
sV\u8f6f\u4ef6
p7193
I71
sV\u7f51\u53cb
p7194
I20
sV\u5148\u80a1
p7195
I77
sV\u662f\u524d
p7196
I42
sV\u76d8\u6709
p7197
I77
sV\u540e\u7b2c
p7198
I20
sV\u8981\u4e00
p7199
I29
sV\u8f83\u5927
p7200
I181
sV\u76d8\u6700
p7201
I36
sV\u5f80\u6709
p7202
I40
sV\u5578\u770b
p7203
I40
sV\u4e0b\u8df3
p7204
I30
sV\u5e74\u521d
p7205
I41
sV\u5e02\u6210
p7206
I94
sV\u8d77\u5230
p7207
I20
sV\u671f\u56db
p7208
I23
sV\u8d22\u52a1
p7209
I24
sV\u6570\u5df2
p7210
I21
sV\u77f3\u6cb9
p7211
I119
sV\u677f\u521b
p7212
I46
sV\u91d1\u51c0
p7213
I51
sV\u518d\u52a0
p7214
I19
sV\u589e\u901f
p7215
I52
sV\u70b9\u9644
p7216
I126
sV\u632f\u8361
p7217
I154
sV\u4e0b\u8dcc
p7218
I1169
sV\u7ebf\u57ce
p7219
I22
sV\u6570\u8dcc
p7220
I25
sV\u4e2d\u77f3
p7221
I66
sV\u5df4\u9a6c
p7222
I22
sV\u770b\u76d8
p7223
I136
sV\u8282\u70b9
p7224
I21
sV\u7f6e\uff0b
p7225
I51
sV\u878d\u80a1
p7226
I62
sV\u4ec5\u4ec5
p7227
I54
sV\u4e13\u5bb6
p7228
I29
sV\u5927\u5b66
p7229
I24
sV\u662f\u521b
p7230
I101
sV\u4f5c\u4e0a
p7231
I27
sV\u5c3e\u76d8
p7232
I193
sV\u6392\u9664
p7233
I30
sV\u5ea6\u5927
p7234
I37
sV2122
p7235
I22
sV\u6761\u5747
p7236
I24
sV\u662f\u5229
p7237
I38
sV\u884c\u6001
p7238
I52
sV\u4e00\u53ea
p7239
I30
sV\u672c\u6b21
p7240
I28
sV\u606f\u9762
p7241
I330
sV\u5728\u6295
p7242
I34
sV\u66f4\u662f
p7243
I103
sV\u5e76\u4e14
p7244
I111
sV\u5728\u8282
p7245
I26
sV\u4ef7\u8fd8
p7246
I42
sV\u771f\u6b63
p7247
I71
sV\u653e\u6e38
p7248
I484
sV\u7279\u522b
p7249
I149
sV\u56fd\u5bb6
p7250
I106
sV\u4e0d\u4fe1
p7251
I485
sV\u65e5\u4e3b
p7252
I257
sV\u6839\u636e
p7253
I131
sV\u81ea\u7136
p7254
I46
sV\u573a\u5927
p7255
I34
sV\u957f\u9634
p7256
I27
sV\u672f\u9762
p7257
I63
sV\u5747\u6307
p7258
I50
sV\u5230\u4eca
p7259
I27
sV\u4e86\u5e02
p7260
I56
sV\u5b9a\u6027
p7261
I29
sV\u4e09\u64cd
p7262
I23
sV\u652f\u4ed8
p7263
I47
sV\u5468\u5927
p7264
I114
sV\u6570\u5b57
p7265
I30
sV\u5fae\u6da8
p7266
I31
sV\u503c\u5f97
p7267
I85
sV\u4e0d\u8fc7
p7268
I274
sV\u4fdd\u7a0e
p7269
I20
sV\u5f88\u96be
p7270
I63
sV\u505c\u9760
p7271
I52
sV\u4f4d\u5982
p7272
I123
sV\u60f3\u5230
p7273
I29
sV\u7136\u800c
p7274
I46
sV\u4ea7\u4e1a
p7275
I116
sV\u5e02\u548c
p7276
I20
sV\u677f\u518d
p7277
I64
sV\u8005\u5bf9
p7278
I21
sV\u662f\u51fa
p7279
I36
sV\u6790\u9884
p7280
I63
sV\u80fd\u518d
p7281
I32
sV\u8dcc\u505c
p7282
I137
sV\u56de\u5347
p7283
I187
sV\u5236\u7ea6
p7284
I22
sV\u56fd\u4eba
p7285
I36
sV\u4e3a\u5468
p7286
I20
sV\u6548\u679c
p7287
I22
sV\u76d8\u64cd
p7288
I32
sV\u4e2d\u540c
p7289
I153
sV\u591a\u4e86
p7290
I47
sV\u672b\u6d88
p7291
I30
sV\u51b2\u9ad8
p7292
I400
sV\u4e34\u8fd1
p7293
I61
sV\u7406\u60f3
p7294
I22
sV\u7389\u540d
p7295
I241
sV\u559c\u6b22
p7296
I24
sV\u7b79\u677f
p7297
I33
sV\u76f8\u5f53
p7298
I52
sV\u5e02\u4f4e
p7299
I25
sV\u4e3b\u52a8
p7300
I231
sV\u65b0\u4f4e
p7301
I47
sV\u6709\u53cd
p7302
I40
sV\u4e0b\u4e00
p7303
I94
sV\u5185\u5728
p7304
I26
sV\u4e3b\u529b
p7305
I924
sV\u4f4e\u4e8e
p7306
I20
sV\u59cb\u7ec8
p7307
I35
sV\u66f4\u65b0
p7308
I169
sV\u677f\u4e0e
p7309
I20
sV\u7ebf\u540e
p7310
I39
sV\u4e94\u64cd
p7311
I19
sV\u5f97\u5173
p7312
I21
sV\u591a\u4eba
p7313
I67
sV\u8f68\u9053
p7314
I58
sV\u6765\u81ea
p7315
I45
sV\u80fd\u91cf
p7316
I36
sV\u6caa\u6307
p7317
I573
sV\u6613\u8005
p7318
I25
sV\u7eed\u9707
p7319
I39
sV\u6750\u6599
p7320
I20
sV\u662f\u5149
p7321
I27
sV\u52a0\u5267
p7322
I22
sV\u672c\u680f
p7323
I43
sV\u7eed\u770b
p7324
I30
sV\u591a\u80a1
p7325
I27
sV\u8d38\u533a
p7326
I426
sV\u5916\u76d8
p7327
I22
sV\u62b5\u6297
p7328
I24
sV\u4e48\u65f6
p7329
I21
sV\u80a1\u673a
p7330
I35
sV\u80a1\u6700
p7331
I22
sV\u89c2\u5bdf
p7332
I103
sV\u5e38\u660e
p7333
I20
sV\u662f\u5168
p7334
I22
sV\u80a1\u6709
p7335
I25
sV\u4e0d\u4f4f
p7336
I26
sV\u7eed\u5728
p7337
I22
sV\u5ea6\u56de
p7338
I32
sV\u573a\u5c31
p7339
I24
sV\u610f\u613f
p7340
I22
sV\u4e0b\u6ed1
p7341
I49
sV\u4eba\u751f
p7342
I30
sV\u6ce8\u660e
p7343
I122
sV\u5404\u65b9
p7344
I19
sV\u52bf\u6765
p7345
I30
sV\u4e00\u70b9
p7346
I179
sV\u662f\u5173
p7347
I32
sV\u503c\uff0b
p7348
I51
sV\u80a1\u671f
p7349
I21
sV\u6216\u8005
p7350
I82
sV\u8d44\u8005
p7351
I463
sV\u65e5\u80a1
p7352
I89
sV\u5e76\u8d2d
p7353
I41
sV\u5982\u4eca
p7354
I49
sV\u76d8\u5747
p7355
I31
sV\u6240\u8c13
p7356
I85
sV\u6700\u8fd1
p7357
I217
sV\u533a\u95f4
p7358
I93
sV\u5473\u7740
p7359
I72
sV\u529b\u91cf
p7360
I102
sV\u80cc\u79bb
p7361
I88
sV\u601d\u7ef4
p7362
I24
sV\u80a1\u6743
p7363
I26
sV\u90a3\u4e00
p7364
I19
sV\u4e0b\u4e86
p7365
I26
sV\u6838\u884c
p7366
I75
sV\u524d\u884c
p7367
I37
sV\u4e00\u90e8
p7368
I23
sV\u5348\u6536
p7369
I23
sV\u6709\u51b2
p7370
I23
sV\u53ef\u80fd
p7371
I560
sV\u7ebf\u548c
p7372
I66
sV\u6df1\u5165
p7373
I59
sV\u603b\u7406
p7374
I32
sV\u91cd\u4ed3
p7375
I25
sV\u4f55\u5e94
p7376
I26
sV\u5f97\u51fa
p7377
I21
sV\u5728\u5927
p7378
I52
sV\u4e0d\u4f1a
p7379
I279
sV\u7740\u4ec0
p7380
I29
sV\u4e0d\u4ee3
p7381
I45
sV\u5341\u4e00
p7382
I30
sV\u5bf9\u80a1
p7383
I69
sV\u4e0b\u8f68
p7384
I40
sV\u6536\u8d2d
p7385
I20
sV\u65b0\u4e00
p7386
I61
sV\u5e02\u6307
p7387
I21
sV\u80a1\u66b4
p7388
I20
sV\u53ea\u4e2a
p7389
I55
sV\u5927\u9633
p7390
I38
sV\u529b\u900f
p7391
I679
sV\u8ffd\u6da8
p7392
I22
sV\u4e0d\u4ec5
p7393
I40
sV\u679c\u4e0d
p7394
I27
sV\u5e02\u80a1
p7395
I52
sV\u800c\u8a00
p7396
I90
sV\u53d1\u8a00
p7397
I20
sV\u5f3a\u8005
p7398
I63
sV\u6b22\u8fce
p7399
I25
sV\u72f8\u79c1
p7400
I30
sV\u80fd\u770b
p7401
I27
sV\u56fd\u5e86
p7402
I198
sV\u8981\u539f
p7403
I42
sV\u4e8c\u5341
p7404
I22
sV\u79c0\u667a
p7405
I28
sV\u534a\u5468
p7406
I29
sV\u4e2d\u957f
p7407
I46
sV\u662f\u6210
p7408
I22
sV\u624d\u662f
p7409
I36
sV\u5e76\u6ca1
p7410
I97
sV\u8001\u9f20
p7411
I19
sV\u8282\u524d
p7412
I256
sV\u5148\u6291
p7413
I30
sV\u76ee\u6807
p7414
I107
sV\u5929\u770b
p7415
I19
sV\u5982\u4f55
p7416
I400
sV\u53d8\u76d8
p7417
I234
sV\u4e0a\u62c9
p7418
I36
sV\u6708\u884c
p7419
I51
sV\u662f\u94f6
p7420
I31
sV\u524d\u666f
p7421
I25
sV\u4e3a\u521b
p7422
I19
sV\u5f97\u5f88
p7423
I21
sV\u917f\u9152
p7424
I33
sV\u7f51\u91d1
p7425
I21
sV\u5341\u51e0
p7426
I22
sV\u589e\u5f3a
p7427
I22
sV\u4e0d\u4e86
p7428
I46
sV\u70b9\u548c
p7429
I36
sV\u5206\u65f6
p7430
I157
sV\u6491\u4f4d
p7431
I22
sV\u5468\u5c06
p7432
I25
sV\u6765\u4e86
p7433
I108
sV\u662f\u90a3
p7434
I34
sV\u76d8\u65e5
p7435
I41
sV\u6807\u7ebf
p7436
I83
sV\u65e9\u4e0a
p7437
I122
sV\u662f\u597d
p7438
I29
sV\u8fd9\u5c31
p7439
I58
sV\u6574\u6570
p7440
I86
sV\u76d8\u65f6
p7441
I44
sV\u57ce\u5e02
p7442
I111
sV\u6307\u5728
p7443
I81
sV\u6218\u53cb
p7444
I62
sV\u4e8c\u6b21
p7445
I46
sV\u6536\u6da8
p7446
I64
sV\u80a1\u662f
p7447
I54
sV\u5e76\u4e0d
p7448
I179
sV\u5927\u5927
p7449
I21
sV\u5230\u4e0a
p7450
I19
sV\u662f\u505a
p7451
I25
sV\u5c0f\u65f6
p7452
I147
sV\u535a\u5c14
p7453
I65
sV\u8fc7\u540e
p7454
I32
sV\u5df2\u7ecf
p7455
I704
sV\u673a\u68b0
p7456
I27
sV\u91cf\u5c0f
p7457
I33
sV\u9762\u5206
p7458
I25
sV\u6d88\u8d39
p7459
I103
sV\u590d\u6742
p7460
I35
sV\u65b0\u4eba
p7461
I121
sV\u653f\u7b56
p7462
I345
sV\u5927\u591a
p7463
I77
sV\u53e5\u8bdd
p7464
I55
sV\u4e3b\u5347
p7465
I47
sV\u53d1\u4e86
p7466
I37
sV\u5c06\u5728
p7467
I53
sV\u8bc4\u8bba
p7468
I41
sV\u76d8\u6536
p7469
I99
sV\u4f20\u7edf
p7470
I44
sV\u51cf\u5c11
p7471
I67
sV\u5efa\u8bae
p7472
I58
sV\u5929\u51fa
p7473
I20
sV\u5360\u6bd4
p7474
I20
sV\u7559\u610f
p7475
I35
sV\u91d1\u94f6
p7476
I29
sV\u51fa\u5386
p7477
I42
sV\u4e0e\u6b64
p7478
I24
sV\u8f7b\u677e
p7479
I22
sV\u5802\u4e4b
p7480
I51
sV\u5efa\u8bbe
p7481
I79
sV\u5e95\u56de
p7482
I22
sV\u5c3d\u7ba1
p7483
I100
sV\u8282\u80fd
p7484
I29
sV\u5931\u5b88
p7485
I65
sV\u5728\u80a1
p7486
I49
sV\u9762\u7279
p7487
I47
sV\u91d1\u516c
p7488
I22
sV\u5c31\u8bf4
p7489
I23
sV\u6d4e\u589e
p7490
I25
sV\u573a\u98ce
p7491
I23
sV\u4e0d\u4e00
p7492
I56
sV\u70b9\u540e
p7493
I62
sV\u5341\u516b
p7494
I19
sV\u6536\u8dcc
p7495
I69
sV\u6765\u4e00
p7496
I41
sV\u4e0d\u4e0a
p7497
I34
sV\u4e0a\u626c
p7498
I40
sV\u6982\u5ff5
p7499
I781
sV\u907f\u514d
p7500
I40
sV\u5929\u91cf
p7501
I32
sV\u76d8\u6574
p7502
I84
sV\u6709\u8fd9
p7503
I33
sV\u5c5e\u5b9a
p7504
I30
sV\u4e70\u5356
p7505
I107
sV\u4e8e\u4e2d
p7506
I30
sV\u53cb\u4ea4
p7507
I61
sV\u6210\u4e3a
p7508
I254
sV\u8f6c\u5411
p7509
I21
sV\u7535\u5b50
p7510
I97
sV\u7136\u662f
p7511
I120
sV\u636e\u76d8
p7512
I26
sV\u6b3e\u5229
p7513
I64
sV\u4e8e\u4e3b
p7514
I20
sV\u4e8b\u4ef6
p7515
I299
sV\u989d\u4e3a
p7516
I41
sV\u610f\u5473
p7517
I94
sV\u65f6\u673a
p7518
I36
sV\u6709\u8fc7
p7519
I25
sV\u5f00\u9707
p7520
I21
sV\u53ef\u662f
p7521
I72
sV\u4e8e\u4e0a
p7522
I66
sV\u4e8e\u4e0b
p7523
I40
sV\u4e0a\u65b9
p7524
I128
sV\u4e4b\u5904
p7525
I20
sV\u4e8e\u4e00
p7526
I25
sV\u8fc7\u53bb
p7527
I87
sV\u672c\u8eab
p7528
I48
sV\u535a\u5ba2
p7529
I804
sV\u4e0b\u884c
p7530
I113
sV\u91d1\u6539
p7531
I34
sV\u6210\u4e00
p7532
I36
sV\u4e4b\u5916
p7533
I33
sV\u673a\u4f1a
p7534
I376
sV\u516c\u5171
p7535
I24
sV\u5728\u6743
p7536
I34
sV\u7b14\u8005
p7537
I309
sV\u65b9\u6cd5
p7538
I85
sV\u65e5\u662f
p7539
I40
sV\u5e03\u5c40
p7540
I27
sV\u6301\u5e01
p7541
I23
sV\u6500\u5347
p7542
I28
sV\u8c28\u9632
p7543
I26
sV\u5546\u4e1a
p7544
I58
sV\u56de\u7b54
p7545
I42
sV\u8fce\u63a5
p7546
I31
sV\u592d\u6298
p7547
I19
sV\u53cb\u4eec
p7548
I105
sV\u8c08\u4e4b
p7549
I53
sV\u52bf\u4e2d
p7550
I40
sV\u4e2a\u6da8
p7551
I20
sV\u5728\u672c
p7552
I30
sV\u5982\u4e0b
p7553
I67
sV\u878d\u6539
p7554
I20
sV\u5757\u5927
p7555
I19
sV\u9633\u7ebf
p7556
I302
sV\u8b66\u60d5
p7557
I69
sV\u6c1b\u56f4
p7558
I25
sV\u6d6a\u5fae
p7559
I20
sV\u8981\u662f
p7560
I212
sV\u52bf\u4e0e
p7561
I60
sV\u52bf\u4e0d
p7562
I42
sV\u8003\u6838
p7563
I87
sVqe
p7564
I71
sV\u52bf\u4e0a
p7565
I55
sV\u5fc5\u987b
p7566
I102
sV\u64cd\u4f5c
p7567
I534
sV\u7ad9\u7a33
p7568
I39
sV\u843d\u540e
p7569
I27
sV\u94f6\u671f
p7570
I27
sV\u4e86\u89e3
p7571
I32
sV\u524d\u4e24
p7572
I39
sV\u540e\u4e0b
p7573
I21
sV\u7ec8\u6536
p7574
I30
sV\u4e24\u65e5
p7575
I34
sV\u672c\u4e0a
p7576
I50
sV\u5fc3\u7406
p7577
I43
sV\u662f\u975e
p7578
I34
sV\u5e02\u8d70
p7579
I26
sV\u80a1\u548c
p7580
I30
sV\u6210\u4ea4
p7581
I683
sV\u677f\u5728
p7582
I37
sV\u4e86\u4e0a
p7583
I48
sV\u975e\u5e38
p7584
I204
sV\u6df1\u5733
p7585
I36
sV\u4f9d\u7136
p7586
I184
sV\u540e\u5927
p7587
I119
sV\u524d\u4e00
p7588
I85
sV\u7ba1\u7406
p7589
I102
sV\u8ba9\u6211
p7590
I35
sV\u900f\u89c6
p7591
I693
sV\u540e\u5e02
p7592
I206
sV\u8d85\u8d8a
p7593
I20
sV\u524d\u4e09
p7594
I34
sV\u56db\u5b63
p7595
I59
sV\u521b\u9020
p7596
I23
sV\u6210\u4e86
p7597
I139
sV\u5927\u5e02
p7598
I24
sV\u5f00\u59cb
p7599
I434
sV\u8dcc\u56de
p7600
I28
sV\u5c31\u53eb
p7601
I43
sV\u90fd\u6709
p7602
I73
sV\u548c\u521b
p7603
I58
sV\u5c31\u53ef
p7604
I45
sV\u5c45\u524d
p7605
I57
sV\u4f1a\u4e0d
p7606
I60
sV\u662f\u770b
p7607
I29
sV\u4f1a\u4e0a
p7608
I37
sV\u524d\u9884
p7609
I19
sV\u672f\u5206
p7610
I30
sV\u6da8\u5230
p7611
I32
sV\u4f4d\u7f6e
p7612
I202
sV\u6027\u7b79
p7613
I117
sV\u5bb6\u6570
p7614
I82
sV\u4e8c\u8fde
p7615
I30
sV\u70b9\u533a
p7616
I20
sV\u8fd1\u65e5
p7617
I70
sV\u4f11\u606f
p7618
I22
sV\u6b64\u65f6
p7619
I35
sV\u8bf7\u6ce8
p7620
I122
sV\u52a8\u5927
p7621
I36
sV\u662f\u81ea
p7622
I28
sV\u5929\u76d8
p7623
I30
sV\u4e8e\u4eca
p7624
I28
sV\u7cbe\u5fc3
p7625
I51
sV\u5929\u53c8
p7626
I19
sV\u662f\u5728
p7627
I203
sV\u677f\u5757
p7628
I1150
sV\u8361\u4e0b
p7629
I49
sV\u8361\u4e0a
p7630
I52
sV\u7cfb\u7edf
p7631
I171
sV\u65e5\u7ebf
p7632
I524
sV\u6216\u662f
p7633
I21
sV\u65af\u8fbe
p7634
I52
sV\u5927\u5e45
p7635
I283
sVetf
p7636
I34
sV\u4ea7\u7b49
p7637
I23
sV\u4e00\u76f4
p7638
I187
sV\u62a5\u9884
p7639
I23
sV\u91d1\u53c9
p7640
I48
sV\u56f4\u80a1
p7641
I24
sV\u628a\u63e1
p7642
I76
sV\u671f\u4e09
p7643
I27
sV\u82b1\u72d0
p7644
I30
sV\u5bfc\u81f4
p7645
I151
sV\u90a3\u662f
p7646
I21
sVcn
p7647
I59
sV\u8fde\u9634
p7648
I77
sV\u8282\u540e
p7649
I223
sV\u4e2d\u5348
p7650
I55
sV\u89e3\u8bfb
p7651
I67
sV\u5929\u5728
p7652
I31
sV\u8f83\u9ad8
p7653
I27
sV\u6d4e\u6570
p7654
I73
sV\u6709\u4ec0
p7655
I47
sV\u671f\u5f85
p7656
I58
sV\u670b\u53cb
p7657
I453
sV\u5171\u540c
p7658
I22
sV\u5168\u4f1a
p7659
I62
sV\u6797\u5e26
p7660
I37
sV\u52c9\u5f3a
p7661
I23
sV\u5b9a\u662f
p7662
I28
sV\u8d22\u5bcc
p7663
I87
sV\u7136\u6709
p7664
I50
sV\u8bf4\u8bf4
p7665
I33
sVlt
p7666
I39
sV\u91cf\u7a81
p7667
I20
sV\u662f\u56e0
p7668
I59
sV\u662f\u56fd
p7669
I29
sV\u6cbb\u5c40
p7670
I26
sV\u6279\u51c6
p7671
I27
sV\u4e86\u5927
p7672
I61
sV\u5468\u5e02
p7673
I61
sV\u8d5a\u94b1
p7674
I158
sV\u76f8\u6bd4
p7675
I81
sV\u5207\u6362
p7676
I29
sV\u70b9\u52a8
p7677
I22
sV\u6709\u4e9b
p7678
I149
sV\u540e\u5feb
p7679
I20
sV\u8981\u6709
p7680
I45
sV\u5728\u94f6
p7681
I32
sV\u5dee\u5f02
p7682
I19
sV\u660e\u65e5
p7683
I130
sV\u83b7\u5229
p7684
I62
sV\u5728\u6628
p7685
I61
sV\u770b\u5230
p7686
I220
sV\u4fdd\u6301
p7687
I105
sV\u5728\u662f
p7688
I32
sV\u611f\u89c9
p7689
I210
sV\u5f88\u91cd
p7690
I22
sV\u53d1\u8868
p7691
I32
sV\u76d8\u63d0
p7692
I53
sV\u8d8b\u52bf
p7693
I388
sV\u6709\u4e86
p7694
I60
sV\u8df3\u7a7a
p7695
I102
sV\u8bdd\u9898
p7696
I21
sV\u6709\u4eba
p7697
I100
sV\u65e5\u6709
p7698
I49
sV\u521b\u51fa
p7699
I117
sV\u4ecb\u7ecd
p7700
I27
sV\u4e86\u4e2d
p7701
I28
sV\u6709\u529b
p7702
I21
sV\u54ea\u4e9b
p7703
I43
sV\u65e5\u671f
p7704
I28
sV\u6570\u5927
p7705
I31
sV\u53d1\u884c
p7706
I116
sV\u5929\u5747
p7707
I23
sV\u5468\u7ebf
p7708
I170
sV\u5236\u5ea6
p7709
I99
sV\u7b79\u80a1
p7710
I59
sV\u5f15\u8d77
p7711
I77
sV\u76d8\u6307
p7712
I140
sV\u6536\u5341
p7713
I29
sV\u91cc\u8bf4
p7714
I23
sV\u65f6\u95f4
p7715
I528
sV\u662f\u53d7
p7716
I26
sV\u6307\u91cf
p7717
I27
sV\u5fae\u8dcc
p7718
I20
sV\u90fd\u662f
p7719
I237
sV\u57ce\u9547
p7720
I23
sV\u4e0a\u4e5f
p7721
I23
sV\u4e3a\u662f
p7722
I28
sV\u91cd\u8981
p7723
I273
sV\u671f\u5f3a
p7724
I24
sV\u7ecf\u8425
p7725
I26
sV\u52bf\u8fd8
p7726
I30
sV\u8d70\u51fa
p7727
I158
sV\u6709\u4e70
p7728
I44
sV\u63d0\u9ad8
p7729
I43
sV\u5e02\u662f
p7730
I23
sV\u6307\u51fa
p7731
I103
sV\u5f71\u7ebf
p7732
I93
sV\u7ebf\u53cd
p7733
I20
sV\u7ed9\u4eba
p7734
I22
sV\u9884\u793a
p7735
I49
sV\u6ce8\u610f
p7736
I239
sV\u540e\u662f
p7737
I22
sV\u6566\u6709
p7738
I29
sV\u6050\u614c
p7739
I45
sV\u5757\u96c6
p7740
I19
sV\u5757\u9886
p7741
I104
sV\u518d\u5ea6
p7742
I306
sVhttp
p7743
I72
sV\u5473\u9053
p7744
I33
sV\u6218\u5206
p7745
I97
sV\u573a\u7ee7
p7746
I20
sV\u5230\u4f4d
p7747
I30
sV\u8ddf\u6211
p7748
I20
sV\u65e0\u53ef
p7749
I21
sV\u6709\u4e09
p7750
I62
sV\u6709\u4e0b
p7751
I43
sV\u6709\u4e0a
p7752
I51
sV\u6709\u4e0d
p7753
I49
sV\u8865\u7f3a
p7754
I41
sV\u6709\u4e00
p7755
I265
sV\u6307\u518d
p7756
I40
sV\u80fd\u51fa
p7757
I23
sV\u666e\u5c14
p7758
I84
sV\u8c22\u5404
p7759
I121
sV\u4e3a\u53cd
p7760
I20
sV\u8d44\u672c
p7761
I133
sV\u5728\u8fde
p7762
I31
sV\u6307\u51b2
p7763
I19
sV\u6708\u4efd
p7764
I193
sV\u672c\u8f6e
p7765
I35
sV\u5bf9\u540e
p7766
I22
sV\u523a\u6fc0
p7767
I143
sV\u6570\u4e00
p7768
I36
sV\u8ddd\u79bb
p7769
I47
sV\u5ea7\u79d8
p7770
I476
sV\u4e8e\u8fd9
p7771
I41
sV\u725b\u80a1
p7772
I135
sV\u6709\u4e2a
p7773
I46
sV\u7ebf\u538b
p7774
I32
sV\u4e07\u80a1
p7775
I20
sV\u5230\u6765
p7776
I25
sV\u9057\u61be
p7777
I21
sV\u6709\u4e24
p7778
I70
sV\u952e\u65f6
p7779
I30
sV\u6708\u4ee5
p7780
I31
sV\u8868\u793a
p7781
I88
sV\u4e0d\u770b
p7782
I26
sV\u5f3a\u652f
p7783
I22
sV\u60b2\u89c2
p7784
I20
sV\u591a\u91cd
p7785
I22
sV\u505a\u4e86
p7786
I32
sV\u76d8\u84dd
p7787
I19
sV\u81ea\u7531
p7788
I45
sV\u4e24\u6761
p7789
I28
sV\u5229\u7528
p7790
I43
sV\u70b9\u51fb
p7791
I786
sV\u573a\u662f
p7792
I25
sV\u5c24\u5176
p7793
I171
sV\u6765\u8bf4
p7794
I176
sV\u878d\u677f
p7795
I39
sV\u65f6\u523b
p7796
I43
sV\u4e13\u5c5e
p7797
I30
sV\u6bd4\u51cf
p7798
I20
sV\u89c4\u5212
p7799
I39
sV\u590d\u82cf
p7800
I29
sV\u76d8\u80a1
p7801
I239
sV\u8fd1\u671f
p7802
I268
sV\u4e70\u5165
p7803
I211
sV\u671f\u95f4
p7804
I96
sV\u8be5\u662f
p7805
I49
sV\u4e2a\u4e0d
p7806
I21
sV\u6839\u672c
p7807
I43
sV\u63d0\u793a
p7808
I376
sV\u671f\u5e02
p7809
I25
sV\u671f\u8d27
p7810
I459
sV\u5e45\u56de
p7811
I35
sV\u4e3e\u7a81
p7812
I21
sV\u80a1\u521b
p7813
I37
sV\u878d\u673a
p7814
I29
sV\u8c08\u8c08
p7815
I23
sV\u653f\u5e9c
p7816
I173
sV\u51fa\u5904
p7817
I123
sV\u4e00\u5468
p7818
I89
sV\u6c38\u78c1
p7819
I26
sV\u5e02\u65e9
p7820
I126
sV\u4f55\u4e00
p7821
I21
sV\u4e5f\u662f
p7822
I268
sV\u51fa\u591a
p7823
I23
sV\u8005\u8ba4
p7824
I24
sV\u660e\u6717
p7825
I20
sV\u5468\u662f
p7826
I21
sV\u8005\u4e0d
p7827
I22
sV\u8bba\u662f
p7828
I35
sV\u8fd9\u79cd
p7829
I292
sVkdj
p7830
I69
sV\u9645\u4e0a
p7831
I67
sV\u91cf\u5927
p7832
I26
sV\u7f29\u51cf
p7833
I27
sV\u8fd8\u9700
p7834
I30
sV\u4e8c\u4e2a
p7835
I30
sV\u4e00\u548c
p7836
I112
sV\u610f\u56fe
p7837
I25
sV\u5bf9\u6b64
p7838
I20
sV\u4e0a\u6709
p7839
I79
sV\u660e\u663e
p7840
I362
sV\u7a33\u884c
p7841
I25
sV\u8c03\u7ed3
p7842
I23
sV\u884c\u677f
p7843
I34
sV\u70b9\u5173
p7844
I38
sV\u53d8\u5316
p7845
I153
sV\u5373\u5c06
p7846
I102
sV\u622a\u6b62
p7847
I32
sV\u8fd8\u5728
p7848
I116
sV\u4eec\u6765
p7849
I21
sVtmt
p7850
I24
sV\u80a1\u6307
p7851
I767
sV\u571f\u6c38
p7852
I26
sV\u4f55\u6f14
p7853
I50
sV\u5c31\u51fa
p7854
I24
sV\u5c0f\u5fc3
p7855
I44
sV\u9020\u6210
p7856
I91
sV\u540e\u5c06
p7857
I30
sV\u9762\u770b
p7858
I36
sV\u5e02\u6536
p7859
I27
sV\u8e7f\u4e0b
p7860
I19
sV\u529b\u4e0d
p7861
I27
sV\u8f83\u597d
p7862
I30
sV\u5927\u5c0f
p7863
I50
sV\u516c\u53f8
p7864
I368
sV\u5c0f\u5fae
p7865
I33
sV\u6301\u9707
p7866
I34
sV\u7ebf\u5c06
p7867
I21
sV\u9ad8\u5c42
p7868
I27
sV\u662f\u7a7a
p7869
I22
sV\u6ce1\u6cab
p7870
I66
sV\u7eb7\u7eb7
p7871
I50
sV\u8f83\u591a
p7872
I32
sV\u65e5\u4f4e
p7873
I28
sV\u51c6\u5907
p7874
I79
sV\u6807\u9898
p7875
I28
sV\u5bfc\u822a
p7876
I20
sV\u539f\u6765
p7877
I26
sV\u573a\u5df2
p7878
I25
sV\u80fd\u6e90
p7879
I32
sV\u6559\u80b2
p7880
I25
sV\u5238\u4e4c
p7881
I23
sV\u51fb\u8fdb
p7882
I289
sV\u6301\u5728
p7883
I20
sV\u51fa\u624b
p7884
I25
sV\u522b\u662f
p7885
I90
sV\u8d70\u52bf
p7886
I1318
sV\u5176\u540e
p7887
I25
sV\u6f14\u7ece
p7888
I66
sV\u8ba4\u771f
p7889
I61
sV\u56db\u5927
p7890
I81
sV\u4e9a\u6d32
p7891
I24
sV\u4ed3\u4f4d
p7892
I37
sV\u4e0a\u6765
p7893
I51
sV\u662f\u7531
p7894
I47
sV\u800c\u8fd9
p7895
I36
sV\u957f\u7ebf
p7896
I41
sV\u7eed\u5411
p7897
I24
sV\u524d\u778e
p7898
I52
sV\u8fd9\u662f
p7899
I241
sV\u8d85\u51fa
p7900
I20
sV\u800c\u4eca
p7901
I21
sV\u800c\u4e2d
p7902
I19
sV\u72ec\u7acb
p7903
I77
sV\u5f53\u5929
p7904
I35
sV\u4f5c\u8005
p7905
I130
sV\u70b9\u90fd
p7906
I20
sV\u521b\u5386
p7907
I32
sV\u8d70\u597d
p7908
I24
sV\u5feb\u901f
p7909
I234
sV\u7b49\u6743
p7910
I32
sV\u53e6\u5916
p7911
I34
sV\u53cc\u4f4e
p7912
I24
sV\u5c0f\u5e45
p7913
I356
sV\u800c\u4e0d
p7914
I38
sV\u800c\u4e0a
p7915
I26
sV\u4e2d\u5168
p7916
I64
sV\u65e5\u65b0
p7917
I26
sV\u4e50\u89c2
p7918
I59
sV\u4ee5\u505c
p7919
I53
sV\u800c\u4e14
p7920
I126
sV\u503a\u671f
p7921
I135
sV\u8d2d\u4e70
p7922
I29
sV\u901f\u5ea6
p7923
I37
sV\u70ed\u70b9
p7924
I344
sV\u4e2a\u4eba
p7925
I138
sV\u56e0\u662f
p7926
I29
sV\u632f\u5e45
p7927
I25
sV\u53eb\u4e3b
p7928
I39
sV\u7a7a\u65b9
p7929
I57
sV\u4e5f\u6709
p7930
I75
sV\u8fd0\u8425
p7931
I20
sV\u4e2a\u4ea4
p7932
I344
sV\u7a97\u53e3
p7933
I42
sV\u65e5\u6536
p7934
I69
sV\u5982\u6b64
p7935
I157
sV\u6bcf\u76ce
p7936
I33
sV\u65b9\u5f0f
p7937
I124
sV\u56de\u987e
p7938
I133
sV\u9a8c\u8bc1
p7939
I25
sV\u4e00\u65e5
p7940
I25
sV\u5730\u56fe
p7941
I31
sV\u5c0f\u5e02
p7942
I45
sV\u62c9\u8d77
p7943
I28
sV\u5f88\u53ef
p7944
I34
sV\u4e86\u5bf9
p7945
I32
sV\u6e90\u80a1
p7946
I32
sV\u2474\u4eca
p7947
I20
sV\u56fd\u7ecf
p7948
I93
sV\u7f8e\u8054
p7949
I107
sV\u4e00\u5e74
p7950
I53
sV\u5e45\u699c
p7951
I25
sV\u9a6c\u4e0a
p7952
I22
sV\u8bf1\u60d1
p7953
I53
sV\u9053\u7ebf
p7954
I54
sV\u7545\u8c08
p7955
I51
sV\u4f46\u8fd8
p7956
I26
sV\u7f8e\u80a1
p7957
I114
sV\u5e45\u9707
p7958
I120
sV\u7ba1\u5236
p7959
I20
sV\u79ef\u6781
p7960
I77
sV\u76d1\u7ba1
p7961
I92
sV\u8361\u8d70
p7962
I69
sV\u80fd\u5426
p7963
I125
sV\u4e2d\u91d1
p7964
I19
sV\u63a2\u81f3
p7965
I19
sV\u6307\u53cc
p7966
I41
sV\u6613\u65e5
p7967
I390
sV\u7591\u95ee
p7968
I19
sV\u4e3a\u6709
p7969
I21
sV\u683c\u6210
p7970
I39
sV\u662f\u5468
p7971
I62
sV\u5347\u52bf
p7972
I23
sV\u5929\u4e00
p7973
I19
sV\u672c\u8d28
p7974
I36
sV\u4e0a\u662f
p7975
I36
sV\u80fd\u540c
p7976
I51
sV\u4ed6\u4eba
p7977
I34
sV\u8fdb\u884c
p7978
I226
sV\u9f99\u5934
p7979
I67
sV\u96be\u514d
p7980
I24
sV\u529b\u54e5
p7981
I27
sV\u56fd\u5e73
p7982
I31
sV\u519c\u4e1a
p7983
I45
sV\u4e2a\u4e2d
p7984
I25
sV\u51b5\u4e0b
p7985
I109
sV4g
p7986
I38
sV\u770b\u70b9
p7987
I42
sV\u6211\u770b
p7988
I33
sV\u53cd\u51fb
p7989
I31
sV\u8bef\u5dee
p7990
I20
sV\u6027\u884c
p7991
I28
sV\u800c\u4ece
p7992
I24
sV\u662f\u5426
p7993
I197
sV\u4e70\u70b9
p7994
I39
sV\u4ed6\u4eec
p7995
I105
sV\u591a\u6b21
p7996
I40
sV\u94c1\u8def
p7997
I36
sV\u5019\u66f4
p7998
I40
sV\u4f20\u5a92
p7999
I163
sV\u5730\u533a
p8000
I24
sV\u5148\u662f
p8001
I33
sV\u4ea7\u8bc1
p8002
I28
sV\u677f\u548c
p8003
I42
sV\u52a0\u901f
p8004
I125
ss.