(dp0
S'tree'
p1
(dp2
I3
(dp3
S'24'
p4
(S'1'
p5
F1.0
tp6
sS'13'
p7
(S'2'
p8
F1.0
tp9
sS'12'
p10
(dp11
I1
(dp12
S'24'
p13
(g8
F1.0
tp14
sS'6'
p15
(g5
F1.0
tp16
sssS'81'
p17
(g5
F1.0
tp18
sS'21'
p19
(g5
F1.0
tp20
sS'22'
p21
(g5
F1.0
tp22
sS'49'
p23
(g8
F1.0
tp24
sS'18'
p25
(g5
F1.0
tp26
sS'31'
p27
(g5
F1.0
tp28
sS'16'
p29
(g5
F1.0
tp30
sS'28'
p31
(g5
F1.0
tp32
sS'43'
p33
(g8
F1.0
tp34
sS'34'
p35
(g5
F1.0
tp36
sS'60'
p37
(g8
F1.0
tp38
sS'26'
p39
(g5
F1.0
tp40
sS'126'
p41
(g8
F1.0
tp42
sS'91'
p43
(g5
F1.0
tp44
sS'69'
p45
(g5
F1.0
tp46
sS'52'
p47
(g8
F1.0
tp48
sS'79'
p49
(g5
F1.0
tp50
sS'14'
p51
(g5
F1.0
tp52
sssS'feature'
p53
Ns.