(dp0
S'tree'
p1
(dp2
I0
(dp3
S'1'
p4
(dp5
I1
(dp6
I-640
(dp7
I3
(dp8
I16
(g4
F1.0
tp9
sI8
(S'2'
p10
F1.0
tp11
sI5
(g4
F1.0
tp12
sI14
(g10
F1.0
tp13
sI7
(g10
F1.0
tp14
sssI0
(g4
F1.0
tp15
sI-760
(dp16
I9
(dp17
I2
(g10
F1.0
tp18
sI3
(g4
F1.0
tp19
sI4
(g10
F1.0
tp20
sI5
(g10
F1.0
tp21
sI6
(g10
F1.0
tp22
sI7
(g10
F1.0
tp23
sI8
(g10
F1.0
tp24
sI10
(g10
F1.0
tp25
sI11
(g4
F1.0
tp26
sI12
(g10
F1.0
tp27
sI13
(g10
F1.0
tp28
sI14
(g10
F1.0
tp29
sssI-360
(g10
F1.0
tp30
sI20
(dp31
I8
(dp32
g4
(g4
F1.0
tp33
sS'3'
p34
(g10
F1.0
tp35
sg10
(g10
F1.0
tp36
sS'4'
p37
(g10
F1.0
tp38
sssI-1000
(g10
F1.0
tp39
sI-60
(g4
F1.0
tp40
sI-100
(dp41
I9
(dp42
I1
(g4
F1.0
tp43
sI2
(dp44
I2
(dp45
g10
(g10
F1.0
tp46
sg37
(g4
F1.0
tp47
sssI3
(g4
F1.0
tp48
sI4
(g10
F1.0
tp49
sI5
(g10
F1.0
tp50
sI6
(g4
F1.0
tp51
sI9
(g4
F1.0
tp52
sI10
(g4
F1.0
tp53
sssI-220
(dp54
I5
(dp55
g34
(g10
F1.0
tp56
sg10
(dp57
I2
(dp58
g34
(g10
F1.0
tp59
sg10
(g4
F1.0
tp60
sssS'5'
p61
(g4
F1.0
tp62
sg37
(g4
F1.0
tp63
sssI40
(g4
F1.0
tp64
sI-740
(g4
F1.0
tp65
sI-340
(dp66
I2
(dp67
S'0'
p68
(g10
F1.0
tp69
sg10
(g4
F1.0
tp70
sg37
(g4
F1.0
tp71
sssI-80
(dp72
I3
(dp73
I18
(g10
F1.0
tp74
sI7
(g4
F1.0
tp75
sssI-120
(g10
F1.0
tp76
sI-460
(g10
F1.0
tp77
sI-200
(dp78
I5
(dp79
g34
(g10
F1.0
tp80
sg61
(g4
F1.0
tp81
sg37
(g4
F1.0
tp82
sssI-580
(g4
F1.0
tp83
sI-700
(g10
F1.0
tp84
sI80
(dp85
I3
(dp86
I0
(dp87
I2
(dp88
g4
(g10
F1.0
tp89
sg10
(g4
F1.0
tp90
sg37
(g4
F1.0
tp91
sssI1
(g4
F1.0
tp92
sI2
(g4
F1.0
tp93
sI4
(g4
F1.0
tp94
sI5
(g10
F1.0
tp95
sI6
(g4
F1.0
tp96
sI8
(g4
F1.0
tp97
sI-1
(dp98
I9
(dp99
I8
(g4
F1.0
tp100
sI1
(g10
F1.0
tp101
sI11
(g4
F1.0
tp102
sI6
(g4
F1.0
tp103
sI7
(g4
F1.0
tp104
sssI-2
(g4
F1.0
tp105
sI31
(g10
F1.0
tp106
sssI-40
(dp107
I9
(dp108
I0
(dp109
I3
(dp110
I0
(g4
F1.0
tp111
sI1
(g10
F1.0
tp112
sI-1
(g10
F1.0
tp113
sssI1
(dp114
I7
(dp115
g4
(g4
F1.0
tp116
sg34
(g10
F1.0
tp117
sg10
(g10
F1.0
tp118
sg37
(dp119
I4
(dp120
g4
(g10
F1.0
tp121
sg61
(g4
F1.0
tp122
sssssI2
(dp123
I8
(dp124
g4
(g10
F1.0
tp125
sg10
(g4
F1.0
tp126
sssI3
(dp127
I2
(dp128
g68
(g10
F1.0
tp129
sg10
(dp130
I5
(dp131
g34
(g4
F1.0
tp132
sg37
(g10
F1.0
tp133
sssssI4
(dp134
I8
(dp135
g4
(g10
F1.0
tp136
sg10
(g4
F1.0
tp137
sg37
(g10
F1.0
tp138
sssI5
(g10
F1.0
tp139
sI6
(dp140
I3
(dp141
I1
(g10
F1.0
tp142
sI2
(g4
F1.0
tp143
sI5
(g10
F1.0
tp144
sI-1
(g10
F1.0
tp145
sssI7
(g4
F1.0
tp146
sI8
(dp147
I6
(dp148
g4
(g4
F1.0
tp149
sg34
(g10
F1.0
tp150
sg37
(g4
F1.0
tp151
sssI9
(dp152
I2
(dp153
g4
(g4
F1.0
tp154
sg34
(g4
F1.0
tp155
sg37
(g10
F1.0
tp156
sssI10
(g10
F1.0
tp157
sI11
(g4
F1.0
tp158
sI12
(g10
F1.0
tp159
sI13
(g4
F1.0
tp160
sI14
(dp161
I2
(dp162
g10
(g10
F1.0
tp163
sg37
(g4
F1.0
tp164
sssI15
(g10
F1.0
tp165
sI17
(g4
F1.0
tp166
sssI-160
(dp167
I9
(dp168
I0
(g10
F1.0
tp169
sI1
(dp170
I3
(dp171
I0
(dp172
I2
(dp173
g10
(g10
F1.0
tp174
sg37
(g4
F1.0
tp175
sssI17
(g4
F1.0
tp176
sI2
(g4
F1.0
tp177
sI3
(g10
F1.0
tp178
sI6
(g4
F1.0
tp179
sssI2
(dp180
I3
(dp181
I2
(g10
F1.0
tp182
sI3
(g10
F1.0
tp183
sI5
(g10
F1.0
tp184
sI6
(g4
F1.0
tp185
sssI3
(dp186
I3
(dp187
I0
(g10
F1.0
tp188
sI1
(g10
F1.0
tp189
sI3
(g4
F1.0
tp190
sI4
(g4
F1.0
tp191
sI5
(g10
F1.0
tp192
sssI4
(g4
F1.0
tp193
sI5
(dp194
I3
(dp195
I0
(g10
F1.0
tp196
sI1
(g10
F1.0
tp197
sI2
(g4
F1.0
tp198
sI7
(g10
F1.0
tp199
sssI6
(g4
F1.0
tp200
sI8
(g10
F1.0
tp201
sI9
(g10
F1.0
tp202
sI10
(g10
F1.0
tp203
sI11
(g10
F1.0
tp204
sI13
(g10
F1.0
tp205
sI16
(g10
F1.0
tp206
sssI-280
(dp207
I9
(dp208
I0
(g10
F1.0
tp209
sI1
(dp210
I3
(dp211
I1
(g10
F1.0
tp212
sI2
(g10
F1.0
tp213
sI3
(g4
F1.0
tp214
sI4
(g4
F1.0
tp215
sI5
(dp216
I6
(dp217
g34
(g4
F1.0
tp218
sg10
(g10
F1.0
tp219
sssI6
(g4
F1.0
tp220
sI7
(g10
F1.0
tp221
sI13
(g4
F1.0
tp222
sssI2
(dp223
I3
(dp224
I0
(g10
F1.0
tp225
sI1
(g10
F1.0
tp226
sI2
(g4
F1.0
tp227
sI4
(g4
F1.0
tp228
sssI3
(dp229
I3
(dp230
I1
(g4
F1.0
tp231
sI4
(g4
F1.0
tp232
sI5
(g10
F1.0
tp233
sI6
(dp234
I2
(dp235
g4
(g10
F1.0
tp236
sg10
(g4
F1.0
tp237
sssI7
(g4
F1.0
tp238
sssI4
(dp239
I3
(dp240
I0
(g10
F1.0
tp241
sI2
(g10
F1.0
tp242
sI5
(g10
F1.0
tp243
sI9
(g10
F1.0
tp244
sI13
(g4
F1.0
tp245
sI15
(g4
F1.0
tp246
sssI5
(dp247
I6
(dp248
g4
(g10
F1.0
tp249
sg34
(g4
F1.0
tp250
sg10
(g10
F1.0
tp251
sssI6
(g10
F1.0
tp252
sI7
(g10
F1.0
tp253
sI8
(g10
F1.0
tp254
sI9
(dp255
I2
(dp256
g34
(g10
F1.0
tp257
sg10
(g10
F1.0
tp258
sg37
(g4
F1.0
tp259
sssI10
(g10
F1.0
tp260
sI11
(g4
F1.0
tp261
sI12
(g10
F1.0
tp262
sI13
(dp263
I2
(dp264
g4
(g10
F1.0
tp265
sg10
(g4
F1.0
tp266
sssI14
(g4
F1.0
tp267
sI15
(g10
F1.0
tp268
sI16
(g4
F1.0
tp269
sI20
(g4
F1.0
tp270
sssI-20
(g4
F1.0
tp271
sI-400
(dp272
I9
(dp273
I1
(g10
F1.0
tp274
sI2
(g4
F1.0
tp275
sI4
(g10
F1.0
tp276
sI5
(dp277
I2
(dp278
g68
(g4
F1.0
tp279
sg10
(g10
F1.0
tp280
sssI7
(g4
F1.0
tp281
sI8
(g4
F1.0
tp282
sI14
(g4
F1.0
tp283
sssI-600
(g10
F1.0
tp284
sI-520
(dp285
I3
(dp286
I33
(g4
F1.0
tp287
sI2
(g10
F1.0
tp288
sI3
(dp289
I2
(dp290
g10
(g10
F1.0
tp291
sg37
(g4
F1.0
tp292
sssI4
(g10
F1.0
tp293
sI5
(dp294
I5
(dp295
g61
(g10
F1.0
tp296
sg37
(g4
F1.0
tp297
sssI6
(g4
F1.0
tp298
sI7
(g4
F1.0
tp299
sI9
(g10
F1.0
tp300
sI10
(g4
F1.0
tp301
sI12
(g10
F1.0
tp302
sI13
(g10
F1.0
tp303
sI16
(g10
F1.0
tp304
sI19
(g10
F1.0
tp305
sssssg34
(dp306
I9
(dp307
I0
(g4
F1.0
tp308
sI1
(g4
F1.0
tp309
sI2
(dp310
I1
(dp311
I-520
(g4
F1.0
tp312
sI-280
(g4
F1.0
tp313
sI-100
(g10
F1.0
tp314
sI-40
(g4
F1.0
tp315
sssI3
(dp316
I1
(dp317
I0
(g4
F1.0
tp318
sI-220
(g4
F1.0
tp319
sI-280
(g4
F1.0
tp320
sI80
(g4
F1.0
tp321
sI-520
(g10
F1.0
tp322
sI20
(g10
F1.0
tp323
sI-40
(dp324
I2
(dp325
g4
(g10
F1.0
tp326
sg10
(g4
F1.0
tp327
sg37
(g10
F1.0
tp328
sssI-100
(g4
F1.0
tp329
sssI4
(g4
F1.0
tp330
sI5
(dp331
I1
(dp332
I-40
(g4
F1.0
tp333
sI-160
(g10
F1.0
tp334
sI-640
(g4
F1.0
tp335
sI-220
(g10
F1.0
tp336
sI20
(g10
F1.0
tp337
sssI6
(dp338
I1
(dp339
I-160
(g10
F1.0
tp340
sI0
(g4
F1.0
tp341
sI-100
(g4
F1.0
tp342
sI-40
(g4
F1.0
tp343
sI-280
(dp344
I4
(dp345
g61
(g10
F1.0
tp346
sg37
(g4
F1.0
tp347
sssssI7
(g10
F1.0
tp348
sI8
(g4
F1.0
tp349
sI9
(g4
F1.0
tp350
sI10
(dp351
I1
(dp352
I-40
(g4
F1.0
tp353
sI0
(g10
F1.0
tp354
sI-400
(g4
F1.0
tp355
sI-280
(g4
F1.0
tp356
sI80
(g4
F1.0
tp357
sssI11
(g4
F1.0
tp358
sI13
(g4
F1.0
tp359
sI14
(g4
F1.0
tp360
sI16
(g4
F1.0
tp361
sI17
(dp362
I1
(dp363
I-400
(g10
F1.0
tp364
sI-40
(g4
F1.0
tp365
sssI20
(g4
F1.0
tp366
sssg10
(dp367
I3
(dp368
I0
(dp369
I9
(dp370
I0
(g4
F1.0
tp371
sI1
(dp372
I7
(dp373
g4
(g4
F1.0
tp374
sg10
(g10
F1.0
tp375
sg37
(g4
F1.0
tp376
sssI2
(dp377
I1
(dp378
I-160
(g4
F1.0
tp379
sI40
(g10
F1.0
tp380
sI20
(g4
F1.0
tp381
sssI3
(dp382
I4
(dp383
g4
(g4
F1.0
tp384
sg34
(g4
F1.0
tp385
sg10
(g10
F1.0
tp386
sssI4
(dp387
I1
(dp388
I-160
(g10
F1.0
tp389
sI-40
(g4
F1.0
tp390
sI20
(g10
F1.0
tp391
sssI5
(g10
F1.0
tp392
sI6
(dp393
I1
(dp394
I-160
(g10
F1.0
tp395
sI80
(g4
F1.0
tp396
sI-100
(g10
F1.0
tp397
sI20
(g4
F1.0
tp398
sssI7
(dp399
I1
(dp400
I80
(g4
F1.0
tp401
sI-40
(g4
F1.0
tp402
sI-220
(g10
F1.0
tp403
sI-280
(g10
F1.0
tp404
sssI8
(dp405
I6
(dp406
g34
(g10
F1.0
tp407
sg37
(g4
F1.0
tp408
sssI9
(g4
F1.0
tp409
sI10
(dp410
I2
(dp411
g34
(g10
F1.0
tp412
sg10
(g10
F1.0
tp413
sg37
(g4
F1.0
tp414
sssI11
(g4
F1.0
tp415
sI15
(g4
F1.0
tp416
sI16
(g4
F1.0
tp417
sI17
(dp418
I1
(dp419
I-40
(g10
F1.0
tp420
sI20
(g4
F1.0
tp421
sssI18
(g4
F1.0
tp422
sssI1
(dp423
I9
(dp424
I0
(g4
F1.0
tp425
sI1
(dp426
I1
(dp427
I-40
(dp428
I5
(dp429
g34
(g4
F1.0
tp430
sg10
(g10
F1.0
tp431
sssI-280
(g4
F1.0
tp432
sI-100
(g4
F1.0
tp433
sssI2
(g10
F1.0
tp434
sI3
(g4
F1.0
tp435
sI4
(dp436
I1
(dp437
I80
(g4
F1.0
tp438
sI0
(g4
F1.0
tp439
sI20
(g10
F1.0
tp440
sI-40
(g4
F1.0
tp441
sssI5
(dp442
I1
(dp443
I40
(g4
F1.0
tp444
sI-160
(g4
F1.0
tp445
sI20
(g10
F1.0
tp446
sssI6
(g4
F1.0
tp447
sI7
(g4
F1.0
tp448
sI8
(g4
F1.0
tp449
sI11
(g4
F1.0
tp450
sI13
(g4
F1.0
tp451
sI15
(g10
F1.0
tp452
sssI2
(dp453
I9
(dp454
I0
(g4
F1.0
tp455
sI1
(dp456
I1
(dp457
I-280
(g10
F1.0
tp458
sI-60
(g4
F1.0
tp459
sI20
(g10
F1.0
tp460
sssI2
(g4
F1.0
tp461
sI3
(dp462
I19
(dp463
g4
(g10
F1.0
tp464
sg68
(g4
F1.0
tp465
sssI4
(dp466
I1
(dp467
I-280
(g10
F1.0
tp468
sI-40
(g4
F1.0
tp469
sI-160
(g10
F1.0
tp470
sI-400
(g10
F1.0
tp471
sI80
(g4
F1.0
tp472
sssI5
(dp473
I1
(dp474
I-40
(g4
F1.0
tp475
sI-280
(g10
F1.0
tp476
sssI6
(dp477
I1
(dp478
I-160
(g4
F1.0
tp479
sI-40
(g10
F1.0
tp480
sI20
(g4
F1.0
tp481
sssI8
(g4
F1.0
tp482
sI9
(g4
F1.0
tp483
sI10
(g4
F1.0
tp484
sI15
(g10
F1.0
tp485
sssI3
(dp486
I9
(dp487
I1
(g10
F1.0
tp488
sI2
(dp489
I1
(dp490
I-520
(g4
F1.0
tp491
sI-400
(g10
F1.0
tp492
sssI3
(dp493
I1
(dp494
I-160
(g10
F1.0
tp495
sI-100
(g4
F1.0
tp496
sssI4
(g4
F1.0
tp497
sI5
(dp498
I8
(dp499
g4
(g4
F1.0
tp500
sg34
(g4
F1.0
tp501
sg10
(g4
F1.0
tp502
sg37
(g10
F1.0
tp503
sssI6
(g4
F1.0
tp504
sI8
(g4
F1.0
tp505
sI9
(g4
F1.0
tp506
sI10
(g4
F1.0
tp507
sI14
(g10
F1.0
tp508
sssI4
(dp509
I9
(dp510
I0
(g10
F1.0
tp511
sI1
(dp512
I1
(dp513
I-160
(g4
F1.0
tp514
sI-700
(g10
F1.0
tp515
sssI2
(dp516
I1
(dp517
I-40
(g10
F1.0
tp518
sI-400
(g4
F1.0
tp519
sI-100
(g4
F1.0
tp520
sssI3
(dp521
I1
(dp522
I-40
(g4
F1.0
tp523
sI-520
(g10
F1.0
tp524
sI-100
(g10
F1.0
tp525
sssI4
(g4
F1.0
tp526
sI5
(g4
F1.0
tp527
sI6
(g4
F1.0
tp528
sI8
(g4
F1.0
tp529
sI9
(g4
F1.0
tp530
sI11
(g10
F1.0
tp531
sI15
(g10
F1.0
tp532
sssI5
(dp533
I9
(dp534
I1
(g10
F1.0
tp535
sI2
(g4
F1.0
tp536
sI3
(g10
F1.0
tp537
sI4
(g4
F1.0
tp538
sI5
(g4
F1.0
tp539
sI11
(g4
F1.0
tp540
sssI6
(dp541
I2
(dp542
g4
(g4
F1.0
tp543
sg68
(g10
F1.0
tp544
sg10
(g4
F1.0
tp545
sg37
(g4
F1.0
tp546
sssI7
(dp547
I1
(dp548
I-160
(dp549
I2
(dp550
g34
(g10
F1.0
tp551
sg10
(g4
F1.0
tp552
sssI-220
(g4
F1.0
tp553
sI-280
(dp554
I2
(dp555
g68
(g10
F1.0
tp556
sg10
(g10
F1.0
tp557
sg37
(g4
F1.0
tp558
sssI-340
(g10
F1.0
tp559
sI-400
(dp560
I7
(dp561
g4
(g4
F1.0
tp562
sg10
(g10
F1.0
tp563
sg37
(g10
F1.0
tp564
sssI-760
(g4
F1.0
tp565
sI-520
(g4
F1.0
tp566
sssI8
(dp567
I9
(dp568
I2
(g10
F1.0
tp569
sI3
(g4
F1.0
tp570
sI4
(g10
F1.0
tp571
sI5
(g4
F1.0
tp572
sI6
(g4
F1.0
tp573
sI10
(g4
F1.0
tp574
sssI9
(dp575
I1
(dp576
I-760
(g10
F1.0
tp577
sI-20
(g4
F1.0
tp578
sI-400
(g10
F1.0
tp579
sI-280
(g4
F1.0
tp580
sI20
(g10
F1.0
tp581
sI-520
(g4
F1.0
tp582
sI-580
(g10
F1.0
tp583
sssI10
(dp584
I1
(dp585
I-760
(g4
F1.0
tp586
sI-1240
(g10
F1.0
tp587
sssI11
(dp588
I1
(dp589
I-160
(g4
F1.0
tp590
sI-640
(g4
F1.0
tp591
sI-760
(g10
F1.0
tp592
sI-340
(g4
F1.0
tp593
sI-280
(g4
F1.0
tp594
sI-200
(g4
F1.0
tp595
sI-40
(g4
F1.0
tp596
sI-520
(g4
F1.0
tp597
sssI12
(dp598
I1
(dp599
I-160
(g4
F1.0
tp600
sI-280
(g4
F1.0
tp601
sI-200
(g4
F1.0
tp602
sI-760
(g10
F1.0
tp603
sI-1000
(g10
F1.0
tp604
sI-40
(g10
F1.0
tp605
sssI13
(dp606
I8
(dp607
g34
(g4
F1.0
tp608
sg10
(g10
F1.0
tp609
sg37
(g4
F1.0
tp610
sssI14
(dp611
I4
(dp612
g4
(g4
F1.0
tp613
sg10
(g10
F1.0
tp614
sg61
(g4
F1.0
tp615
sssI15
(g4
F1.0
tp616
sI16
(dp617
I1
(dp618
I-320
(g4
F1.0
tp619
sI-520
(g10
F1.0
tp620
sI-340
(g10
F1.0
tp621
sssI17
(dp622
I1
(dp623
I-760
(g4
F1.0
tp624
sI-400
(g10
F1.0
tp625
sssI18
(dp626
I1
(dp627
I-520
(g10
F1.0
tp628
sI-1000
(g4
F1.0
tp629
sssI19
(dp630
I1
(dp631
I-520
(g10
F1.0
tp632
sI-640
(g4
F1.0
tp633
sssI20
(dp634
I1
(dp635
I-760
(g10
F1.0
tp636
sI-520
(g4
F1.0
tp637
sssI22
(g10
F1.0
tp638
sI23
(g10
F1.0
tp639
sI24
(dp640
I1
(dp641
I-280
(g10
F1.0
tp642
sI-580
(g4
F1.0
tp643
sssI25
(g4
F1.0
tp644
sI26
(g10
F1.0
tp645
sI27
(g10
F1.0
tp646
sI29
(g10
F1.0
tp647
sI30
(g10
F1.0
tp648
sI31
(g10
F1.0
tp649
sI33
(g10
F1.0
tp650
sI39
(g10
F1.0
tp651
sI-1
(dp652
I8
(dp653
g4
(g4
F1.0
tp654
sg34
(g10
F1.0
tp655
sg10
(dp656
I2
(dp657
g4
(g10
F1.0
tp658
sg10
(g4
F1.0
tp659
sssssI-2
(g4
F1.0
tp660
sssg37
(dp661
I3
(dp662
I0
(dp663
I9
(dp664
I1
(g4
F1.0
tp665
sI2
(g4
F1.0
tp666
sI3
(g4
F1.0
tp667
sI4
(dp668
I1
(dp669
I-160
(g4
F1.0
tp670
sI-40
(g10
F1.0
tp671
sI-100
(g4
F1.0
tp672
sI-280
(g4
F1.0
tp673
sI20
(g4
F1.0
tp674
sssI5
(dp675
I1
(dp676
I-40
(g10
F1.0
tp677
sI0
(g4
F1.0
tp678
sssI6
(g4
F1.0
tp679
sI7
(g4
F1.0
tp680
sI8
(g4
F1.0
tp681
sI9
(g4
F1.0
tp682
sI10
(g4
F1.0
tp683
sI11
(g4
F1.0
tp684
sI12
(g4
F1.0
tp685
sI14
(g4
F1.0
tp686
sI16
(g4
F1.0
tp687
sssI1
(dp688
I9
(dp689
I0
(g4
F1.0
tp690
sI1
(dp691
I1
(dp692
I-40
(g4
F1.0
tp693
sI20
(g10
F1.0
tp694
sssI2
(g4
F1.0
tp695
sI3
(dp696
I1
(dp697
I0
(g10
F1.0
tp698
sI-160
(g4
F1.0
tp699
sI-280
(g4
F1.0
tp700
sI80
(g4
F1.0
tp701
sI20
(g4
F1.0
tp702
sI-40
(g10
F1.0
tp703
sssI4
(g4
F1.0
tp704
sI5
(dp705
I2
(dp706
g4
(g4
F1.0
tp707
sg34
(g4
F1.0
tp708
sg10
(g4
F1.0
tp709
sg37
(g10
F1.0
tp710
sssI6
(g4
F1.0
tp711
sI7
(g4
F1.0
tp712
sI8
(g4
F1.0
tp713
sI9
(dp714
I1
(dp715
I0
(g4
F1.0
tp716
sI-280
(g4
F1.0
tp717
sI-100
(g4
F1.0
tp718
sI-160
(g10
F1.0
tp719
sssI10
(g4
F1.0
tp720
sI11
(g4
F1.0
tp721
sI13
(dp722
I2
(dp723
g34
(g10
F1.0
tp724
sg10
(g4
F1.0
tp725
sg37
(g4
F1.0
tp726
sssI14
(g4
F1.0
tp727
sI15
(g4
F1.0
tp728
sI16
(g4
F1.0
tp729
sssI2
(dp730
I1
(dp731
I0
(g4
F1.0
tp732
sI-160
(dp733
I9
(dp734
I1
(g10
F1.0
tp735
sI2
(g4
F1.0
tp736
sI3
(g4
F1.0
tp737
sI4
(dp738
I2
(dp739
g10
(g4
F1.0
tp740
sg37
(g10
F1.0
tp741
sssI5
(g4
F1.0
tp742
sI10
(g4
F1.0
tp743
sssI-280
(g4
F1.0
tp744
sI-20
(g4
F1.0
tp745
sI80
(g4
F1.0
tp746
sI-40
(g4
F1.0
tp747
sI20
(dp748
I2
(dp749
g10
(g10
F1.0
tp750
sg37
(g4
F1.0
tp751
sssI-520
(g10
F1.0
tp752
sI-400
(g4
F1.0
tp753
sI-100
(g4
F1.0
tp754
sssI3
(dp755
I9
(dp756
I0
(g4
F1.0
tp757
sI1
(g4
F1.0
tp758
sI2
(dp759
I1
(dp760
I-520
(g4
F1.0
tp761
sI-160
(g4
F1.0
tp762
sI0
(g10
F1.0
tp763
sssI3
(dp764
I2
(dp765
g34
(g10
F1.0
tp766
sg10
(g4
F1.0
tp767
sg37
(g4
F1.0
tp768
sssI4
(g4
F1.0
tp769
sI5
(g4
F1.0
tp770
sI6
(dp771
I4
(dp772
g4
(g4
F1.0
tp773
sg34
(g10
F1.0
tp774
sg61
(g4
F1.0
tp775
sssI7
(g4
F1.0
tp776
sI8
(g10
F1.0
tp777
sI9
(g4
F1.0
tp778
sI10
(dp779
I1
(dp780
I-280
(g10
F1.0
tp781
sI-220
(g4
F1.0
tp782
sssI11
(g4
F1.0
tp783
sI12
(g4
F1.0
tp784
sI13
(g4
F1.0
tp785
sssI4
(dp786
I1
(dp787
I-160
(dp788
I2
(dp789
g10
(g4
F1.0
tp790
sg37
(g10
F1.0
tp791
sssI0
(g4
F1.0
tp792
sI-220
(dp793
I5
(dp794
g34
(g4
F1.0
tp795
sg10
(g10
F1.0
tp796
sg37
(g4
F1.0
tp797
sssI-40
(g4
F1.0
tp798
sI-280
(g4
F1.0
tp799
sI-100
(g4
F1.0
tp800
sI-340
(g10
F1.0
tp801
sI80
(g4
F1.0
tp802
sI-520
(g4
F1.0
tp803
sI20
(g4
F1.0
tp804
sI-240
(g4
F1.0
tp805
sI-360
(g4
F1.0
tp806
sI-460
(g4
F1.0
tp807
sI-580
(g4
F1.0
tp808
sI-400
(g4
F1.0
tp809
sI-760
(g4
F1.0
tp810
sssI5
(dp811
I1
(dp812
I-160
(g4
F1.0
tp813
sI100
(g4
F1.0
tp814
sI-280
(g4
F1.0
tp815
sI-400
(g4
F1.0
tp816
sI-40
(g4
F1.0
tp817
sI20
(g4
F1.0
tp818
sI-520
(dp819
I4
(dp820
g4
(g10
F1.0
tp821
sg61
(g4
F1.0
tp822
sssI-220
(g4
F1.0
tp823
sI-100
(g4
F1.0
tp824
sI120
(g4
F1.0
tp825
sssI6
(dp826
I9
(dp827
I1
(g4
F1.0
tp828
sI3
(g4
F1.0
tp829
sI4
(dp830
I1
(dp831
I-280
(g10
F1.0
tp832
sI-100
(g4
F1.0
tp833
sssI6
(g4
F1.0
tp834
sI9
(g4
F1.0
tp835
sI10
(g4
F1.0
tp836
sI11
(g4
F1.0
tp837
sI13
(g4
F1.0
tp838
sI15
(g4
F1.0
tp839
sI16
(g4
F1.0
tp840
sssI7
(dp841
I1
(dp842
I-280
(g4
F1.0
tp843
sI-400
(g4
F1.0
tp844
sI-640
(g4
F1.0
tp845
sI-160
(g10
F1.0
tp846
sI-760
(g10
F1.0
tp847
sssI8
(dp848
I8
(dp849
g4
(g4
F1.0
tp850
sg34
(dp851
I1
(dp852
I-160
(g4
F1.0
tp853
sI-280
(g4
F1.0
tp854
sI-400
(g4
F1.0
tp855
sI-520
(g10
F1.0
tp856
sI-40
(g4
F1.0
tp857
sI-100
(g4
F1.0
tp858
sssg10
(g10
F1.0
tp859
sg37
(g4
F1.0
tp860
sssI9
(dp861
I10
(dp862
g4
(g10
F1.0
tp863
sg34
(g4
F1.0
tp864
sg10
(g4
F1.0
tp865
sssI10
(g4
F1.0
tp866
sI11
(dp867
I5
(dp868
g34
(g4
F1.0
tp869
sg10
(g10
F1.0
tp870
sg61
(g4
F1.0
tp871
sg37
(g4
F1.0
tp872
sssI12
(dp873
I1
(dp874
I-160
(g10
F1.0
tp875
sI-520
(g4
F1.0
tp876
sI-280
(g4
F1.0
tp877
sI-1000
(g4
F1.0
tp878
sssI13
(dp879
I1
(dp880
I80
(g4
F1.0
tp881
sI-160
(g10
F1.0
tp882
sI-400
(g4
F1.0
tp883
sI-520
(g4
F1.0
tp884
sI-280
(g4
F1.0
tp885
sssI14
(dp886
I5
(dp887
g34
(g4
F1.0
tp888
sg10
(g10
F1.0
tp889
sg61
(g4
F1.0
tp890
sg37
(g4
F1.0
tp891
sssI15
(dp892
I5
(dp893
g4
(g10
F1.0
tp894
sg10
(g4
F1.0
tp895
sg61
(g4
F1.0
tp896
sg37
(g4
F1.0
tp897
sssI16
(dp898
I2
(dp899
g34
(g10
F1.0
tp900
sg10
(g4
F1.0
tp901
sg37
(g10
F1.0
tp902
sssI17
(dp903
I1
(dp904
I-280
(g10
F1.0
tp905
sI-340
(g4
F1.0
tp906
sI-580
(g4
F1.0
tp907
sssI18
(g4
F1.0
tp908
sI19
(dp909
I2
(dp910
g68
(g4
F1.0
tp911
sg34
(g10
F1.0
tp912
sg10
(g4
F1.0
tp913
sg37
(g4
F1.0
tp914
sssI20
(dp915
I1
(dp916
I-1000
(g4
F1.0
tp917
sI-760
(g10
F1.0
tp918
sssI21
(g4
F1.0
tp919
sI22
(dp920
I2
(dp921
g34
(g4
F1.0
tp922
sg10
(g10
F1.0
tp923
sssI23
(g4
F1.0
tp924
sI24
(g10
F1.0
tp925
sI26
(dp926
I1
(dp927
I-760
(g4
F1.0
tp928
sI-220
(g10
F1.0
tp929
sssI29
(g4
F1.0
tp930
sI33
(g4
F1.0
tp931
sI-1
(dp932
I9
(dp933
I1
(dp934
I1
(dp935
I-160
(g10
F1.0
tp936
sI80
(g4
F1.0
tp937
sI120
(g4
F1.0
tp938
sssI4
(g4
F1.0
tp939
sI5
(g4
F1.0
tp940
sI6
(g4
F1.0
tp941
sI7
(g4
F1.0
tp942
sI8
(dp943
I2
(dp944
g10
(g10
F1.0
tp945
sg37
(g4
F1.0
tp946
sssI10
(g4
F1.0
tp947
sI11
(g4
F1.0
tp948
sI12
(g4
F1.0
tp949
sI13
(g4
F1.0
tp950
sssI-2
(g4
F1.0
tp951
sssssS'feature'
p952
Ns.