(dp0
S'tree'
p1
(dp2
I3
(dp3
S'130'
p4
(S'2'
p5
F1.0
tp6
sS'138'
p7
(S'1'
p8
F1.0
tp9
sS'24'
p10
(dp11
I9
(dp12
S'25'
p13
(g8
F1.0
tp14
sS'26'
p15
(g8
F1.0
tp16
sS'27'
p17
(g8
F1.0
tp18
sS'23'
p19
(g5
F1.0
tp20
sS'33'
p21
(g5
F1.0
tp22
sS'47'
p23
(g8
F1.0
tp24
sS'31'
p25
(g8
F1.0
tp26
sS'42'
p27
(g8
F1.0
tp28
sS'43'
p29
(g8
F1.0
tp30
sS'53'
p31
(g8
F1.0
tp32
sS'36'
p33
(g8
F1.0
tp34
sS'64'
p35
(g8
F1.0
tp36
sS'35'
p37
(g5
F1.0
tp38
sS'34'
p39
(g8
F1.0
tp40
sS'44'
p41
(g8
F1.0
tp42
sS'50'
p43
(g8
F1.0
tp44
sssS'25'
p45
(dp46
I9
(dp47
S'25'
p48
(g5
F1.0
tp49
sS'39'
p50
(g8
F1.0
tp51
sS'27'
p52
(g8
F1.0
tp53
sS'22'
p54
(dp55
I1
(dp56
S'24'
p57
(g8
F1.0
tp58
sS'18'
p59
(g5
F1.0
tp60
sssS'23'
p61
(dp62
I0
(dp63
g8
(g8
F1.0
tp64
sg5
(g5
F1.0
tp65
sssS'46'
p66
(g8
F1.0
tp67
sS'32'
p68
(g8
F1.0
tp69
sS'51'
p70
(g8
F1.0
tp71
sS'43'
p72
(g8
F1.0
tp73
sS'41'
p74
(g8
F1.0
tp75
sS'47'
p76
(g5
F1.0
tp77
sssS'26'
p78
(dp79
I9
(dp80
S'24'
p81
(g8
F1.0
tp82
sS'25'
p83
(g8
F1.0
tp84
sS'27'
p85
(g8
F1.0
tp86
sS'21'
p87
(g5
F1.0
tp88
sS'55'
p89
(g8
F1.0
tp90
sS'42'
p91
(g8
F1.0
tp92
sS'44'
p93
(g8
F1.0
tp94
sS'28'
p95
(dp96
I0
(dp97
g8
(g8
F1.0
tp98
sg5
(g5
F1.0
tp99
sS'4'
p100
(g8
F1.0
tp101
sssS'29'
p102
(g8
F1.0
tp103
sS'35'
p104
(g8
F1.0
tp105
sS'34'
p106
(g8
F1.0
tp107
sS'43'
p108
(g5
F1.0
tp109
sS'33'
p110
(g5
F1.0
tp111
sS'46'
p112
(g8
F1.0
tp113
sS'65'
p114
(g5
F1.0
tp115
sS'41'
p116
(g5
F1.0
tp117
sssS'27'
p118
(dp119
I9
(dp120
S'26'
p121
(g8
F1.0
tp122
sS'27'
p123
(g8
F1.0
tp124
sS'20'
p125
(g5
F1.0
tp126
sS'32'
p127
(g8
F1.0
tp128
sS'57'
p129
(g8
F1.0
tp130
sS'28'
p131
(g8
F1.0
tp132
sS'29'
p133
(g8
F1.0
tp134
sS'35'
p135
(g8
F1.0
tp136
sS'50'
p137
(g5
F1.0
tp138
sS'40'
p139
(g8
F1.0
tp140
sS'41'
p141
(g5
F1.0
tp142
sS'31'
p143
(g5
F1.0
tp144
sssS'20'
p145
(dp146
I9
(dp147
S'24'
p148
(g8
F1.0
tp149
sS'27'
p150
(g8
F1.0
tp151
sS'20'
p152
(dp153
I0
(dp154
g8
(g5
F1.0
tp155
sg5
(g8
F1.0
tp156
sssS'21'
p157
(g5
F1.0
tp158
sS'22'
p159
(g5
F1.0
tp160
sS'23'
p161
(g8
F1.0
tp162
sS'19'
p163
(g5
F1.0
tp164
sS'47'
p165
(g8
F1.0
tp166
sS'31'
p167
(g8
F1.0
tp168
sS'30'
p169
(g8
F1.0
tp170
sS'37'
p171
(g8
F1.0
tp172
sS'40'
p173
(g5
F1.0
tp174
sS'34'
p175
(g8
F1.0
tp176
sS'60'
p177
(g8
F1.0
tp178
sS'61'
p179
(dp180
I0
(dp181
g5
(g5
F1.0
tp182
sg100
(g8
F1.0
tp183
sssS'35'
p184
(g8
F1.0
tp185
sS'42'
p186
(g8
F1.0
tp187
sssS'21'
p188
(dp189
I9
(dp190
S'24'
p191
(dp192
I0
(dp193
g8
(g5
F1.0
tp194
sg100
(g8
F1.0
tp195
sssS'25'
p196
(g8
F1.0
tp197
sS'26'
p198
(g8
F1.0
tp199
sS'27'
p200
(g8
F1.0
tp201
sS'41'
p202
(g8
F1.0
tp203
sS'48'
p204
(g8
F1.0
tp205
sS'23'
p206
(g8
F1.0
tp207
sS'33'
p208
(g8
F1.0
tp209
sS'28'
p210
(g8
F1.0
tp211
sS'49'
p212
(g8
F1.0
tp213
sS'37'
p214
(dp215
I0
(dp216
S'3'
p217
(g5
F1.0
tp218
sg5
(g8
F1.0
tp219
sssS'39'
p220
(g8
F1.0
tp221
sS'35'
p222
(g8
F1.0
tp223
sS'29'
p224
(dp225
I0
(dp226
g8
(g5
F1.0
tp227
sg100
(g8
F1.0
tp228
sssS'52'
p229
(g8
F1.0
tp230
sS'30'
p231
(g8
F1.0
tp232
sS'34'
p233
(g5
F1.0
tp234
sssS'22'
p235
(dp236
I9
(dp237
S'24'
p238
(dp239
I0
(dp240
g8
(g8
F1.0
tp241
sg5
(g5
F1.0
tp242
sssS'25'
p243
(dp244
I1
(dp245
S'18'
p246
(g8
F1.0
tp247
sS'10'
p248
(g5
F1.0
tp249
sssS'39'
p250
(g8
F1.0
tp251
sS'38'
p252
(g8
F1.0
tp253
sS'20'
p254
(g8
F1.0
tp255
sS'48'
p256
(g8
F1.0
tp257
sS'33'
p258
(dp259
I0
(dp260
g8
(g5
F1.0
tp261
sg100
(g8
F1.0
tp262
sssS'57'
p263
(g5
F1.0
tp264
sS'30'
p265
(g8
F1.0
tp266
sS'28'
p267
(g5
F1.0
tp268
sS'43'
p269
(g8
F1.0
tp270
sS'29'
p271
(g8
F1.0
tp272
sS'60'
p273
(g5
F1.0
tp274
sS'36'
p275
(g8
F1.0
tp276
sS'52'
p277
(g8
F1.0
tp278
sS'50'
p279
(g8
F1.0
tp280
sssS'23'
p281
(dp282
I9
(dp283
S'30'
p284
(g8
F1.0
tp285
sS'28'
p286
(dp287
I0
(dp288
g5
(g5
F1.0
tp289
sg100
(g8
F1.0
tp290
sssS'34'
p291
(g8
F1.0
tp292
sS'24'
p293
(g8
F1.0
tp294
sS'25'
p295
(g5
F1.0
tp296
sS'27'
p297
(g8
F1.0
tp298
sS'22'
p299
(g8
F1.0
tp300
sS'49'
p301
(g8
F1.0
tp302
sS'46'
p303
(g8
F1.0
tp304
sS'45'
p305
(dp306
I0
(dp307
g8
(g5
F1.0
tp308
sg5
(g8
F1.0
tp309
sssS'42'
p310
(g5
F1.0
tp311
sS'29'
p312
(g8
F1.0
tp313
sS'39'
p314
(g8
F1.0
tp315
sS'33'
p316
(g5
F1.0
tp317
sS'54'
p318
(g8
F1.0
tp319
sS'31'
p320
(g5
F1.0
tp321
sS'23'
p322
(g8
F1.0
tp323
sS'37'
p324
(g8
F1.0
tp325
sS'36'
p326
(g8
F1.0
tp327
sS'35'
p328
(g8
F1.0
tp329
sS'52'
p330
(g8
F1.0
tp331
sS'32'
p332
(g8
F1.0
tp333
sssS'28'
p334
(dp335
I9
(dp336
S'24'
p337
(g8
F1.0
tp338
sS'25'
p339
(g5
F1.0
tp340
sS'26'
p341
(g8
F1.0
tp342
sS'27'
p343
(g5
F1.0
tp344
sS'21'
p345
(g8
F1.0
tp346
sS'22'
p347
(g8
F1.0
tp348
sS'33'
p349
(g8
F1.0
tp350
sS'32'
p351
(g8
F1.0
tp352
sS'31'
p353
(dp354
I1
(dp355
S'18'
p356
(g5
F1.0
tp357
sS'21'
p358
(g8
F1.0
tp359
sssS'36'
p360
(g8
F1.0
tp361
sS'53'
p362
(g8
F1.0
tp363
sS'34'
p364
(g8
F1.0
tp365
sS'61'
p366
(g5
F1.0
tp367
sS'38'
p368
(g8
F1.0
tp369
sS'35'
p370
(g8
F1.0
tp371
sssS'29'
p372
(dp373
I22
(dp374
g8
(g5
F1.0
tp375
sS'0'
p376
(g8
F1.0
tp377
sssg100
(dp378
I9
(dp379
S'24'
p380
(g5
F1.0
tp381
sS'39'
p382
(g8
F1.0
tp383
sS'38'
p384
(g8
F1.0
tp385
sS'58'
p386
(g8
F1.0
tp387
sS'22'
p388
(g5
F1.0
tp389
sS'23'
p390
(dp391
I0
(dp392
g8
(g5
F1.0
tp393
sg217
(g8
F1.0
tp394
sssS'49'
p395
(g8
F1.0
tp396
sS'42'
p397
(g8
F1.0
tp398
sS'52'
p399
(g8
F1.0
tp400
sssS'8'
p401
(dp402
I9
(dp403
S'26'
p404
(dp405
I0
(dp406
g8
(g5
F1.0
tp407
sg100
(g8
F1.0
tp408
sssS'27'
p409
(dp410
I0
(dp411
g8
(g5
F1.0
tp412
sg100
(g8
F1.0
tp413
sssS'63'
p414
(g8
F1.0
tp415
sS'22'
p416
(g8
F1.0
tp417
sS'23'
p418
(dp419
I5
(dp420
g5
(g5
F1.0
tp421
sg100
(g8
F1.0
tp422
sssS'33'
p423
(g5
F1.0
tp424
sS'28'
p425
(g8
F1.0
tp426
sS'44'
p427
(g8
F1.0
tp428
sS'37'
p429
(g5
F1.0
tp430
sS'36'
p431
(g8
F1.0
tp432
sS'53'
p433
(g5
F1.0
tp434
sS'38'
p435
(g8
F1.0
tp436
sS'64'
p437
(g8
F1.0
tp438
sS'66'
p439
(dp440
I1
(dp441
S'9'
p442
(g8
F1.0
tp443
sS'12'
p444
(g5
F1.0
tp445
sssssS'120'
p446
(g5
F1.0
tp447
sS'122'
p448
(g8
F1.0
tp449
sS'124'
p450
(g5
F1.0
tp451
sS'126'
p452
(g5
F1.0
tp453
sS'127'
p454
(dp455
I1
(dp456
S'21'
p457
(g5
F1.0
tp458
sS'48'
p459
(g8
F1.0
tp460
sssS'59'
p461
(dp462
I0
(dp463
g5
(g8
F1.0
tp464
sg100
(g5
F1.0
tp465
sssS'58'
p466
(g8
F1.0
tp467
sS'55'
p468
(g8
F1.0
tp469
sS'54'
p470
(g8
F1.0
tp471
sS'57'
p472
(g8
F1.0
tp473
sS'56'
p474
(g5
F1.0
tp475
sS'51'
p476
(dp477
I1
(dp478
g442
(g5
F1.0
tp479
sS'24'
p480
(g8
F1.0
tp481
sS'27'
p482
(g8
F1.0
tp483
sS'48'
p484
(g5
F1.0
tp485
sssS'50'
p486
(dp487
I1
(dp488
S'15'
p489
(g8
F1.0
tp490
sS'21'
p491
(g5
F1.0
tp492
sssS'53'
p493
(dp494
I1
(dp495
S'18'
p496
(g8
F1.0
tp497
sS'27'
p498
(g5
F1.0
tp499
sS'15'
p500
(g8
F1.0
tp501
sssS'52'
p502
(dp503
I0
(dp504
g8
(g5
F1.0
tp505
sg217
(g8
F1.0
tp506
sg5
(g5
F1.0
tp507
sg100
(g8
F1.0
tp508
sssS'116'
p509
(g5
F1.0
tp510
sS'111'
p511
(g8
F1.0
tp512
sS'110'
p513
(g5
F1.0
tp514
sS'113'
p515
(g5
F1.0
tp516
sS'82'
p517
(g5
F1.0
tp518
sS'83'
p519
(g5
F1.0
tp520
sS'80'
p521
(dp522
I0
(dp523
g5
(g8
F1.0
tp524
sg100
(g5
F1.0
tp525
sssS'81'
p526
(dp527
I2
(dp528
g376
(g8
F1.0
tp529
sg217
(g5
F1.0
tp530
sg5
(g8
F1.0
tp531
sg100
(g5
F1.0
tp532
sssS'86'
p533
(dp534
I1
(dp535
S'24'
p536
(g5
F1.0
tp537
sS'39'
p538
(g8
F1.0
tp539
sS'27'
p540
(g8
F1.0
tp541
sssS'118'
p542
(dp543
I0
(dp544
g8
(g5
F1.0
tp545
sg5
(g8
F1.0
tp546
sssS'84'
p547
(dp548
I1
(dp549
S'30'
p550
(g5
F1.0
tp551
sS'48'
p552
(g8
F1.0
tp553
sssS'85'
p554
(g8
F1.0
tp555
sg217
(g8
F1.0
tp556
sS'7'
p557
(dp558
I9
(dp559
S'24'
p560
(g8
F1.0
tp561
sS'25'
p562
(g5
F1.0
tp563
sS'27'
p564
(g8
F1.0
tp565
sS'20'
p566
(g5
F1.0
tp567
sS'22'
p568
(g5
F1.0
tp569
sS'23'
p570
(g8
F1.0
tp571
sS'46'
p572
(dp573
I0
(dp574
g8
(g5
F1.0
tp575
sg100
(g8
F1.0
tp576
sssS'47'
p577
(g8
F1.0
tp578
sS'28'
p579
(g5
F1.0
tp580
sS'29'
p581
(g8
F1.0
tp582
sS'40'
p583
(dp584
I6
(dp585
g217
(g5
F1.0
tp586
sg100
(g8
F1.0
tp587
sssS'41'
p588
(dp589
I0
(dp590
g8
(g8
F1.0
tp591
sg100
(g5
F1.0
tp592
sssS'39'
p593
(g8
F1.0
tp594
sS'38'
p595
(g8
F1.0
tp596
sS'33'
p597
(g5
F1.0
tp598
sS'54'
p599
(g8
F1.0
tp600
sS'57'
p601
(g5
F1.0
tp602
sS'30'
p603
(g8
F1.0
tp604
sS'51'
p605
(g8
F1.0
tp606
sS'36'
p607
(g8
F1.0
tp608
sS'35'
p609
(g5
F1.0
tp610
sS'52'
p611
(g8
F1.0
tp612
sS'32'
p613
(g8
F1.0
tp614
sssS'109'
p615
(g8
F1.0
tp616
sS'102'
p617
(g8
F1.0
tp618
sS'103'
p619
(g5
F1.0
tp620
sS'100'
p621
(g5
F1.0
tp622
sS'101'
p623
(dp624
I1
(dp625
S'60'
p626
(g8
F1.0
tp627
sS'48'
p628
(g5
F1.0
tp629
sssS'106'
p630
(g8
F1.0
tp631
sS'107'
p632
(g8
F1.0
tp633
sS'104'
p634
(g8
F1.0
tp635
sS'105'
p636
(g8
F1.0
tp637
sS'39'
p638
(dp639
I1
(dp640
S'24'
p641
(g8
F1.0
tp642
sS'10'
p643
(g8
F1.0
tp644
sS'27'
p645
(g5
F1.0
tp646
sS'48'
p647
(g5
F1.0
tp648
sS'18'
p649
(g8
F1.0
tp650
sS'30'
p651
(g8
F1.0
tp652
sS'36'
p653
(g8
F1.0
tp654
sS'11'
p655
(g8
F1.0
tp656
sssS'38'
p657
(dp658
I2
(dp659
g376
(g5
F1.0
tp660
sg5
(g8
F1.0
tp661
sg100
(g8
F1.0
tp662
sssS'33'
p663
(dp664
I2
(dp665
g8
(g5
F1.0
tp666
sg5
(g5
F1.0
tp667
sg100
(g8
F1.0
tp668
sssS'32'
p669
(dp670
I9
(dp671
S'24'
p672
(g5
F1.0
tp673
sS'25'
p674
(g8
F1.0
tp675
sS'26'
p676
(g8
F1.0
tp677
sS'38'
p678
(g8
F1.0
tp679
sS'20'
p680
(g8
F1.0
tp681
sS'23'
p682
(g5
F1.0
tp683
sS'33'
p684
(g8
F1.0
tp685
sS'31'
p686
(g5
F1.0
tp687
sS'39'
p688
(g8
F1.0
tp689
sS'41'
p690
(g8
F1.0
tp691
sssS'31'
p692
(dp693
I9
(dp694
S'25'
p695
(g8
F1.0
tp696
sS'26'
p697
(g5
F1.0
tp698
sS'27'
p699
(g5
F1.0
tp700
sS'22'
p701
(dp702
I0
(dp703
g8
(g8
F1.0
tp704
sg5
(g5
F1.0
tp705
sssS'49'
p706
(g8
F1.0
tp707
sS'33'
p708
(g8
F1.0
tp709
sS'32'
p710
(g8
F1.0
tp711
sS'31'
p712
(dp713
I1
(dp714
S'24'
p715
(g8
F1.0
tp716
sS'18'
p717
(g8
F1.0
tp718
sS'30'
p719
(g5
F1.0
tp720
sssS'30'
p721
(g8
F1.0
tp722
sS'28'
p723
(g5
F1.0
tp724
sS'36'
p725
(g8
F1.0
tp726
sS'40'
p727
(g8
F1.0
tp728
sS'52'
p729
(g8
F1.0
tp730
sS'61'
p731
(g8
F1.0
tp732
sS'54'
p733
(g5
F1.0
tp734
sssS'30'
p735
(dp736
I9
(dp737
S'24'
p738
(g8
F1.0
tp739
sS'25'
p740
(dp741
I1
(dp742
S'12'
p743
(g5
F1.0
tp744
sS'30'
p745
(g8
F1.0
tp746
sssS'20'
p747
(g5
F1.0
tp748
sS'21'
p749
(g5
F1.0
tp750
sS'49'
p751
(g8
F1.0
tp752
sS'33'
p753
(g8
F1.0
tp754
sS'32'
p755
(g8
F1.0
tp756
sS'45'
p757
(g8
F1.0
tp758
sS'28'
p759
(g8
F1.0
tp760
sS'40'
p761
(g8
F1.0
tp762
sS'34'
p763
(g8
F1.0
tp764
sS'63'
p765
(g8
F1.0
tp766
sS'47'
p767
(g8
F1.0
tp768
sssS'37'
p769
(g8
F1.0
tp770
sS'36'
p771
(dp772
I9
(dp773
S'26'
p774
(g8
F1.0
tp775
sS'27'
p776
(dp777
I1
(dp778
S'24'
p779
(g5
F1.0
tp780
sS'15'
p781
(g8
F1.0
tp782
sS'48'
p783
(g8
F1.0
tp784
sssS'20'
p785
(g8
F1.0
tp786
sS'22'
p787
(g8
F1.0
tp788
sS'23'
p789
(g8
F1.0
tp790
sS'46'
p791
(g8
F1.0
tp792
sS'47'
p793
(g8
F1.0
tp794
sS'57'
p795
(g8
F1.0
tp796
sS'30'
p797
(g8
F1.0
tp798
sS'37'
p799
(g8
F1.0
tp800
sS'29'
p801
(g8
F1.0
tp802
sS'40'
p803
(g8
F1.0
tp804
sS'54'
p805
(g8
F1.0
tp806
sS'31'
p807
(g5
F1.0
tp808
sS'28'
p809
(g8
F1.0
tp810
sssS'35'
p811
(dp812
I9
(dp813
S'25'
p814
(g8
F1.0
tp815
sS'26'
p816
(g8
F1.0
tp817
sS'38'
p818
(g8
F1.0
tp819
sS'23'
p820
(g8
F1.0
tp821
sS'44'
p822
(g8
F1.0
tp823
sS'45'
p824
(g8
F1.0
tp825
sS'37'
p826
(g8
F1.0
tp827
sS'29'
p828
(g5
F1.0
tp829
sS'34'
p830
(g8
F1.0
tp831
sssS'34'
p832
(dp833
I9
(dp834
S'39'
p835
(g8
F1.0
tp836
sS'27'
p837
(g8
F1.0
tp838
sS'21'
p839
(g5
F1.0
tp840
sS'23'
p841
(g8
F1.0
tp842
sS'37'
p843
(g8
F1.0
tp844
sS'31'
p845
(g8
F1.0
tp846
sS'42'
p847
(g5
F1.0
tp848
sS'26'
p849
(g5
F1.0
tp850
sS'35'
p851
(dp852
I0
(dp853
g8
(g5
F1.0
tp854
sg100
(g8
F1.0
tp855
sssS'29'
p856
(g8
F1.0
tp857
sS'74'
p858
(g8
F1.0
tp859
sS'65'
p860
(g8
F1.0
tp861
sS'47'
p862
(g8
F1.0
tp863
sS'44'
p864
(g5
F1.0
tp865
sssS'60'
p866
(dp867
I1
(dp868
S'27'
p869
(g8
F1.0
tp870
sS'42'
p871
(g8
F1.0
tp872
sS'48'
p873
(g5
F1.0
tp874
sS'40'
p875
(g5
F1.0
tp876
sS'30'
p877
(g8
F1.0
tp878
sssS'61'
p879
(dp880
I0
(dp881
g8
(g5
F1.0
tp882
sg5
(g8
F1.0
tp883
sg100
(g8
F1.0
tp884
sssS'62'
p885
(dp886
I1
(dp887
S'18'
p888
(g8
F1.0
tp889
sS'12'
p890
(g5
F1.0
tp891
sS'36'
p892
(g5
F1.0
tp893
sS'48'
p894
(g5
F1.0
tp895
sS'30'
p896
(g8
F1.0
tp897
sssS'63'
p898
(dp899
I1
(dp900
S'24'
p901
(g8
F1.0
tp902
sS'48'
p903
(g5
F1.0
tp904
sS'18'
p905
(g8
F1.0
tp906
sS'42'
p907
(g8
F1.0
tp908
sS'36'
p909
(g8
F1.0
tp910
sS'60'
p911
(g5
F1.0
tp912
sssS'64'
p913
(dp914
I1
(dp915
S'24'
p916
(g8
F1.0
tp917
sS'18'
p918
(g8
F1.0
tp919
sS'30'
p920
(g5
F1.0
tp921
sS'48'
p922
(g5
F1.0
tp923
sssS'65'
p924
(dp925
I1
(dp926
S'60'
p927
(g8
F1.0
tp928
sS'18'
p929
(g5
F1.0
tp930
sS'12'
p931
(g5
F1.0
tp932
sS'20'
p933
(g8
F1.0
tp934
sssS'66'
p935
(dp936
I0
(dp937
g8
(g8
F1.0
tp938
sg5
(g5
F1.0
tp939
sg100
(g8
F1.0
tp940
sssS'67'
p941
(g8
F1.0
tp942
sS'68'
p943
(dp944
I1
(dp945
S'24'
p946
(g8
F1.0
tp947
sS'15'
p948
(g5
F1.0
tp949
sS'48'
p950
(g5
F1.0
tp951
sS'18'
p952
(g5
F1.0
tp953
sS'60'
p954
(g5
F1.0
tp955
sS'6'
p956
(g8
F1.0
tp957
sssS'69'
p958
(dp959
I0
(dp960
g8
(g5
F1.0
tp961
sg5
(g8
F1.0
tp962
sssg5
(g8
F1.0
tp963
sS'184'
p964
(g5
F1.0
tp965
sg956
(dp966
I9
(dp967
S'24'
p968
(g5
F1.0
tp969
sS'26'
p970
(dp971
I0
(dp972
g217
(g5
F1.0
tp973
sg5
(g8
F1.0
tp974
sssS'56'
p975
(g8
F1.0
tp976
sS'20'
p977
(g8
F1.0
tp978
sS'49'
p979
(g8
F1.0
tp980
sS'23'
p981
(g8
F1.0
tp982
sS'30'
p983
(g5
F1.0
tp984
sS'37'
p985
(g8
F1.0
tp986
sS'65'
p987
(g8
F1.0
tp988
sS'32'
p989
(g8
F1.0
tp990
sssS'99'
p991
(g8
F1.0
tp992
sS'91'
p993
(g8
F1.0
tp994
sS'90'
p995
(g5
F1.0
tp996
sS'93'
p997
(dp998
I0
(dp999
g8
(g5
F1.0
tp1000
sg5
(g8
F1.0
tp1001
sg100
(g8
F1.0
tp1002
sssS'92'
p1003
(g8
F1.0
tp1004
sS'94'
p1005
(dp1006
I0
(dp1007
g5
(g5
F1.0
tp1008
sg100
(g8
F1.0
tp1009
sssS'96'
p1010
(dp1011
I5
(dp1012
g217
(g8
F1.0
tp1013
sg5
(g5
F1.0
tp1014
sg100
(g5
F1.0
tp1015
sssS'11'
p1016
(dp1017
I9
(dp1018
S'25'
p1019
(g8
F1.0
tp1020
sS'26'
p1021
(g8
F1.0
tp1022
sS'27'
p1023
(g8
F1.0
tp1024
sS'20'
p1025
(g8
F1.0
tp1026
sS'21'
p1027
(g8
F1.0
tp1028
sS'48'
p1029
(g5
F1.0
tp1030
sS'49'
p1031
(g8
F1.0
tp1032
sS'33'
p1033
(g5
F1.0
tp1034
sS'32'
p1035
(g5
F1.0
tp1036
sS'30'
p1037
(dp1038
I0
(dp1039
g5
(g5
F1.0
tp1040
sg100
(g8
F1.0
tp1041
sssS'28'
p1042
(dp1043
I0
(dp1044
g8
(g5
F1.0
tp1045
sg5
(g8
F1.0
tp1046
sssS'29'
p1047
(dp1048
I0
(dp1049
g5
(g8
F1.0
tp1050
sg100
(g5
F1.0
tp1051
sssS'46'
p1052
(g8
F1.0
tp1053
sS'65'
p1054
(g8
F1.0
tp1055
sssS'10'
p1056
(dp1057
I9
(dp1058
S'25'
p1059
(g8
F1.0
tp1060
sS'39'
p1061
(g8
F1.0
tp1062
sS'27'
p1063
(g5
F1.0
tp1064
sS'22'
p1065
(g8
F1.0
tp1066
sS'48'
p1067
(g5
F1.0
tp1068
sS'49'
p1069
(g8
F1.0
tp1070
sS'33'
p1071
(g5
F1.0
tp1072
sS'47'
p1073
(g8
F1.0
tp1074
sS'30'
p1075
(g8
F1.0
tp1076
sS'36'
p1077
(g8
F1.0
tp1078
sS'35'
p1079
(g8
F1.0
tp1080
sS'29'
p1081
(g5
F1.0
tp1082
sS'19'
p1083
(g8
F1.0
tp1084
sS'21'
p1085
(g8
F1.0
tp1086
sS'23'
p1087
(dp1088
I0
(dp1089
g8
(g5
F1.0
tp1090
sg5
(g8
F1.0
tp1091
sg100
(g8
F1.0
tp1092
sssS'50'
p1093
(g8
F1.0
tp1094
sssS'13'
p1095
(dp1096
I9
(dp1097
S'42'
p1098
(g8
F1.0
tp1099
sS'61'
p1100
(g8
F1.0
tp1101
sS'62'
p1102
(g8
F1.0
tp1103
sS'24'
p1104
(g5
F1.0
tp1105
sS'25'
p1106
(dp1107
I0
(dp1108
g5
(g5
F1.0
tp1109
sg100
(g8
F1.0
tp1110
sssS'26'
p1111
(dp1112
I0
(dp1113
g8
(g5
F1.0
tp1114
sg217
(g8
F1.0
tp1115
sg100
(g8
F1.0
tp1116
sssS'27'
p1117
(dp1118
I0
(dp1119
g217
(g8
F1.0
tp1120
sg5
(g8
F1.0
tp1121
sg100
(g5
F1.0
tp1122
sssS'20'
p1123
(dp1124
I0
(dp1125
g8
(g5
F1.0
tp1126
sg100
(g8
F1.0
tp1127
sssS'21'
p1128
(g8
F1.0
tp1129
sS'22'
p1130
(dp1131
I0
(dp1132
g5
(g5
F1.0
tp1133
sg100
(g8
F1.0
tp1134
sssS'49'
p1135
(g8
F1.0
tp1136
sS'46'
p1137
(g8
F1.0
tp1138
sS'47'
p1139
(g8
F1.0
tp1140
sS'45'
p1141
(g8
F1.0
tp1142
sS'28'
p1143
(g8
F1.0
tp1144
sS'43'
p1145
(dp1146
I1
(dp1147
S'24'
p1148
(g5
F1.0
tp1149
sS'12'
p1150
(g8
F1.0
tp1151
sssS'40'
p1152
(g8
F1.0
tp1153
sS'74'
p1154
(g8
F1.0
tp1155
sS'39'
p1156
(g5
F1.0
tp1157
sS'38'
p1158
(g8
F1.0
tp1159
sS'48'
p1160
(g8
F1.0
tp1161
sS'54'
p1162
(g8
F1.0
tp1163
sS'57'
p1164
(g8
F1.0
tp1165
sS'23'
p1166
(g8
F1.0
tp1167
sS'37'
p1168
(dp1169
I0
(dp1170
g8
(g5
F1.0
tp1171
sg217
(g5
F1.0
tp1172
sg100
(g8
F1.0
tp1173
sssS'36'
p1174
(g8
F1.0
tp1175
sS'35'
p1176
(g8
F1.0
tp1177
sS'34'
p1178
(g5
F1.0
tp1179
sS'32'
p1180
(dp1181
I0
(dp1182
g8
(g5
F1.0
tp1183
sg5
(g8
F1.0
tp1184
sssssS'12'
p1185
(dp1186
I9
(dp1187
S'37'
p1188
(g8
F1.0
tp1189
sS'29'
p1190
(dp1191
I0
(dp1192
g8
(g5
F1.0
tp1193
sg100
(g8
F1.0
tp1194
sssS'60'
p1195
(g5
F1.0
tp1196
sS'61'
p1197
(g8
F1.0
tp1198
sS'36'
p1199
(g8
F1.0
tp1200
sS'67'
p1201
(g8
F1.0
tp1202
sS'68'
p1203
(g8
F1.0
tp1204
sS'24'
p1205
(g5
F1.0
tp1206
sS'25'
p1207
(g8
F1.0
tp1208
sS'26'
p1209
(g8
F1.0
tp1210
sS'27'
p1211
(g8
F1.0
tp1212
sS'48'
p1213
(g5
F1.0
tp1214
sS'23'
p1215
(dp1216
I1
(dp1217
g442
(g8
F1.0
tp1218
sS'24'
p1219
(g5
F1.0
tp1220
sS'12'
p1221
(g8
F1.0
tp1222
sS'18'
p1223
(g5
F1.0
tp1224
sssS'46'
p1225
(g5
F1.0
tp1226
sS'47'
p1227
(dp1228
I0
(dp1229
g8
(g5
F1.0
tp1230
sg5
(g5
F1.0
tp1231
sg100
(g8
F1.0
tp1232
sssS'44'
p1233
(g8
F1.0
tp1234
sS'28'
p1235
(g8
F1.0
tp1236
sS'43'
p1237
(g8
F1.0
tp1238
sS'40'
p1239
(g8
F1.0
tp1240
sS'41'
p1241
(g8
F1.0
tp1242
sS'39'
p1243
(g5
F1.0
tp1244
sS'38'
p1245
(dp1246
I0
(dp1247
g5
(g5
F1.0
tp1248
sg100
(g8
F1.0
tp1249
sssS'55'
p1250
(g5
F1.0
tp1251
sS'32'
p1252
(g8
F1.0
tp1253
sS'57'
p1254
(g8
F1.0
tp1255
sS'30'
p1256
(g8
F1.0
tp1257
sS'51'
p1258
(g8
F1.0
tp1259
sS'50'
p1260
(g8
F1.0
tp1261
sS'35'
p1262
(dp1263
I0
(dp1264
g8
(g5
F1.0
tp1265
sg100
(g8
F1.0
tp1266
sssS'33'
p1267
(g5
F1.0
tp1268
sssS'15'
p1269
(dp1270
I9
(dp1271
S'50'
p1272
(g8
F1.0
tp1273
sS'61'
p1274
(g5
F1.0
tp1275
sS'63'
p1276
(g8
F1.0
tp1277
sS'66'
p1278
(g8
F1.0
tp1279
sS'24'
p1280
(g5
F1.0
tp1281
sS'25'
p1282
(g5
F1.0
tp1283
sS'26'
p1284
(g8
F1.0
tp1285
sS'22'
p1286
(dp1287
I0
(dp1288
g5
(g8
F1.0
tp1289
sg100
(g5
F1.0
tp1290
sssS'23'
p1291
(dp1292
I0
(dp1293
g8
(g8
F1.0
tp1294
sg5
(g5
F1.0
tp1295
sssS'44'
p1296
(g8
F1.0
tp1297
sS'42'
p1298
(g8
F1.0
tp1299
sS'43'
p1300
(dp1301
I1
(dp1302
S'24'
p1303
(g8
F1.0
tp1304
sS'18'
p1305
(g5
F1.0
tp1306
sS'15'
p1307
(g8
F1.0
tp1308
sssS'41'
p1309
(g8
F1.0
tp1310
sS'29'
p1311
(g8
F1.0
tp1312
sS'39'
p1313
(g8
F1.0
tp1314
sS'38'
p1315
(g8
F1.0
tp1316
sS'33'
p1317
(g8
F1.0
tp1318
sS'32'
p1319
(dp1320
I2
(dp1321
g5
(g8
F1.0
tp1322
sg100
(g5
F1.0
tp1323
sssS'31'
p1324
(g8
F1.0
tp1325
sS'56'
p1326
(g8
F1.0
tp1327
sS'36'
p1328
(g8
F1.0
tp1329
sS'35'
p1330
(g8
F1.0
tp1331
sS'34'
p1332
(dp1333
I0
(dp1334
g5
(g5
F1.0
tp1335
sg100
(g8
F1.0
tp1336
sssssS'14'
p1337
(dp1338
I9
(dp1339
S'25'
p1340
(dp1341
I1
(dp1342
S'24'
p1343
(g5
F1.0
tp1344
sS'15'
p1345
(g8
F1.0
tp1346
sssS'26'
p1347
(dp1348
I4
(dp1349
g8
(g8
F1.0
tp1350
sg217
(g5
F1.0
tp1351
sg5
(g8
F1.0
tp1352
sssS'27'
p1353
(dp1354
I0
(dp1355
g8
(g5
F1.0
tp1356
sg5
(g8
F1.0
tp1357
sg100
(g8
F1.0
tp1358
sssS'59'
p1359
(g8
F1.0
tp1360
sS'22'
p1361
(g5
F1.0
tp1362
sS'23'
p1363
(dp1364
I1
(dp1365
S'24'
p1366
(g5
F1.0
tp1367
sS'15'
p1368
(g8
F1.0
tp1369
sg956
(g8
F1.0
tp1370
sssS'33'
p1371
(g8
F1.0
tp1372
sS'54'
p1373
(g8
F1.0
tp1374
sS'31'
p1375
(g8
F1.0
tp1376
sS'49'
p1377
(g8
F1.0
tp1378
sS'28'
p1379
(g8
F1.0
tp1380
sS'29'
p1381
(dp1382
I0
(dp1383
g5
(g5
F1.0
tp1384
sg100
(g8
F1.0
tp1385
sssS'35'
p1386
(dp1387
I0
(dp1388
g8
(g5
F1.0
tp1389
sg5
(g8
F1.0
tp1390
sg100
(g8
F1.0
tp1391
sssS'36'
p1392
(dp1393
I1
(dp1394
S'12'
p1395
(g5
F1.0
tp1396
sg956
(g8
F1.0
tp1397
sssS'55'
p1398
(g8
F1.0
tp1399
sS'75'
p1400
(g8
F1.0
tp1401
sS'64'
p1402
(g8
F1.0
tp1403
sS'37'
p1404
(g8
F1.0
tp1405
sS'47'
p1406
(g8
F1.0
tp1407
sS'40'
p1408
(dp1409
I1
(dp1410
S'24'
p1411
(g5
F1.0
tp1412
sS'15'
p1413
(g8
F1.0
tp1414
sg956
(g8
F1.0
tp1415
sssS'32'
p1416
(g5
F1.0
tp1417
sssS'17'
p1418
(dp1419
I9
(dp1420
S'24'
p1421
(g8
F1.0
tp1422
sS'26'
p1423
(g8
F1.0
tp1424
sS'27'
p1425
(g8
F1.0
tp1426
sS'48'
p1427
(g8
F1.0
tp1428
sS'22'
p1429
(g5
F1.0
tp1430
sS'31'
p1431
(g8
F1.0
tp1432
sS'30'
p1433
(g8
F1.0
tp1434
sS'29'
p1435
(g5
F1.0
tp1436
sS'35'
p1437
(g8
F1.0
tp1438
sS'36'
p1439
(g8
F1.0
tp1440
sS'63'
p1441
(g8
F1.0
tp1442
sS'34'
p1443
(g8
F1.0
tp1444
sssS'16'
p1445
(dp1446
I9
(dp1447
S'24'
p1448
(g8
F1.0
tp1449
sS'20'
p1450
(g8
F1.0
tp1451
sS'22'
p1452
(g8
F1.0
tp1453
sS'23'
p1454
(g8
F1.0
tp1455
sS'46'
p1456
(g8
F1.0
tp1457
sS'32'
p1458
(g8
F1.0
tp1459
sS'44'
p1460
(g5
F1.0
tp1461
sS'30'
p1462
(g8
F1.0
tp1463
sS'51'
p1464
(g8
F1.0
tp1465
sS'50'
p1466
(g8
F1.0
tp1467
sS'40'
p1468
(dp1469
I0
(dp1470
g8
(g5
F1.0
tp1471
sg100
(g8
F1.0
tp1472
sssS'34'
p1473
(g8
F1.0
tp1474
sS'55'
p1475
(dp1476
I0
(dp1477
g8
(g8
F1.0
tp1478
sg100
(g5
F1.0
tp1479
sssS'36'
p1480
(g8
F1.0
tp1481
sS'35'
p1482
(g8
F1.0
tp1483
sS'54'
p1484
(g8
F1.0
tp1485
sssS'19'
p1486
(dp1487
I9
(dp1488
S'29'
p1489
(g8
F1.0
tp1490
sS'60'
p1491
(g8
F1.0
tp1492
sS'66'
p1493
(g5
F1.0
tp1494
sS'25'
p1495
(g5
F1.0
tp1496
sS'26'
p1497
(g8
F1.0
tp1498
sS'27'
p1499
(g5
F1.0
tp1500
sS'22'
p1501
(g8
F1.0
tp1502
sS'23'
p1503
(dp1504
I0
(dp1505
g8
(g8
F1.0
tp1506
sg100
(g5
F1.0
tp1507
sssS'44'
p1508
(g8
F1.0
tp1509
sS'28'
p1510
(g8
F1.0
tp1511
sS'43'
p1512
(g8
F1.0
tp1513
sS'40'
p1514
(g8
F1.0
tp1515
sS'39'
p1516
(g8
F1.0
tp1517
sS'38'
p1518
(g8
F1.0
tp1519
sS'58'
p1520
(g8
F1.0
tp1521
sS'33'
p1522
(g8
F1.0
tp1523
sS'32'
p1524
(dp1525
I1
(dp1526
S'24'
p1527
(g5
F1.0
tp1528
sS'18'
p1529
(g8
F1.0
tp1530
sssS'31'
p1531
(g5
F1.0
tp1532
sS'30'
p1533
(g5
F1.0
tp1534
sS'37'
p1535
(g5
F1.0
tp1536
sS'36'
p1537
(g8
F1.0
tp1538
sS'35'
p1539
(g8
F1.0
tp1540
sS'34'
p1541
(g8
F1.0
tp1542
sssS'18'
p1543
(dp1544
I9
(dp1545
S'24'
p1546
(g8
F1.0
tp1547
sS'25'
p1548
(g5
F1.0
tp1549
sS'26'
p1550
(g5
F1.0
tp1551
sS'30'
p1552
(dp1553
I0
(dp1554
g8
(g5
F1.0
tp1555
sg100
(g8
F1.0
tp1556
sssS'58'
p1557
(g8
F1.0
tp1558
sS'22'
p1559
(g5
F1.0
tp1560
sS'23'
p1561
(g5
F1.0
tp1562
sS'46'
p1563
(g8
F1.0
tp1564
sS'37'
p1565
(g5
F1.0
tp1566
sS'44'
p1567
(g8
F1.0
tp1568
sS'45'
p1569
(g8
F1.0
tp1570
sS'28'
p1571
(g8
F1.0
tp1572
sS'34'
p1573
(g5
F1.0
tp1574
sS'48'
p1575
(g8
F1.0
tp1576
sS'21'
p1577
(g8
F1.0
tp1578
sssS'89'
p1579
(g8
F1.0
tp1580
sS'157'
p1581
(dp1582
I0
(dp1583
g5
(g5
F1.0
tp1584
sg100
(g8
F1.0
tp1585
sssS'159'
p1586
(dp1587
I0
(dp1588
g8
(g8
F1.0
tp1589
sg5
(g5
F1.0
tp1590
sssS'48'
p1591
(dp1592
I9
(dp1593
S'24'
p1594
(g8
F1.0
tp1595
sS'26'
p1596
(g8
F1.0
tp1597
sS'56'
p1598
(g8
F1.0
tp1599
sS'33'
p1600
(g5
F1.0
tp1601
sS'31'
p1602
(g5
F1.0
tp1603
sS'30'
p1604
(g8
F1.0
tp1605
sS'51'
p1606
(g8
F1.0
tp1607
sS'43'
p1608
(g5
F1.0
tp1609
sssS'49'
p1610
(g5
F1.0
tp1611
sS'46'
p1612
(dp1613
I1
(dp1614
S'24'
p1615
(g5
F1.0
tp1616
sS'30'
p1617
(g8
F1.0
tp1618
sS'15'
p1619
(g5
F1.0
tp1620
sS'48'
p1621
(g5
F1.0
tp1622
sS'18'
p1623
(g8
F1.0
tp1624
sS'45'
p1625
(g8
F1.0
tp1626
sg956
(g5
F1.0
tp1627
sssS'119'
p1628
(g5
F1.0
tp1629
sS'44'
p1630
(dp1631
I1
(dp1632
S'24'
p1633
(g8
F1.0
tp1634
sS'18'
p1635
(g8
F1.0
tp1636
sS'42'
p1637
(g5
F1.0
tp1638
sssS'45'
p1639
(dp1640
I9
(dp1641
S'26'
p1642
(dp1643
I1
(dp1644
S'30'
p1645
(g8
F1.0
tp1646
sS'36'
p1647
(g5
F1.0
tp1648
sssS'32'
p1649
(g8
F1.0
tp1650
sS'31'
p1651
(g8
F1.0
tp1652
sS'30'
p1653
(g5
F1.0
tp1654
sS'34'
p1655
(g8
F1.0
tp1656
sS'74'
p1657
(g8
F1.0
tp1658
sssS'42'
p1659
(dp1660
I9
(dp1661
S'28'
p1662
(dp1663
I2
(dp1664
g376
(g8
F1.0
tp1665
sg5
(g8
F1.0
tp1666
sg100
(g5
F1.0
tp1667
sssS'26'
p1668
(g5
F1.0
tp1669
sS'42'
p1670
(g5
F1.0
tp1671
sS'36'
p1672
(g5
F1.0
tp1673
sS'35'
p1674
(g8
F1.0
tp1675
sssS'43'
p1676
(dp1677
I1
(dp1678
S'33'
p1679
(g5
F1.0
tp1680
sS'18'
p1681
(g5
F1.0
tp1682
sS'30'
p1683
(dp1684
I0
(dp1685
g5
(g5
F1.0
tp1686
sg100
(g8
F1.0
tp1687
sssS'20'
p1688
(g8
F1.0
tp1689
sS'48'
p1690
(g5
F1.0
tp1691
sssS'40'
p1692
(dp1693
I1
(dp1694
S'24'
p1695
(g8
F1.0
tp1696
sS'15'
p1697
(g5
F1.0
tp1698
sS'14'
p1699
(g8
F1.0
tp1700
sS'48'
p1701
(g8
F1.0
tp1702
sS'18'
p1703
(g5
F1.0
tp1704
sS'42'
p1705
(dp1706
I0
(dp1707
g8
(g5
F1.0
tp1708
sg100
(g8
F1.0
tp1709
sssS'36'
p1710
(g8
F1.0
tp1711
sS'21'
p1712
(g8
F1.0
tp1713
sS'28'
p1714
(g5
F1.0
tp1715
sssS'41'
p1716
(dp1717
I0
(dp1718
g8
(g5
F1.0
tp1719
sg5
(g5
F1.0
tp1720
sg100
(g8
F1.0
tp1721
sssS'5'
p1722
(g8
F1.0
tp1723
sg442
(dp1724
I9
(dp1725
S'24'
p1726
(g8
F1.0
tp1727
sS'25'
p1728
(g8
F1.0
tp1729
sS'39'
p1730
(g8
F1.0
tp1731
sS'27'
p1732
(g8
F1.0
tp1733
sS'21'
p1734
(dp1735
I0
(dp1736
g8
(g5
F1.0
tp1737
sg100
(g8
F1.0
tp1738
sssS'23'
p1739
(dp1740
I0
(dp1741
g8
(g5
F1.0
tp1742
sg5
(g8
F1.0
tp1743
sssS'32'
p1744
(g5
F1.0
tp1745
sS'31'
p1746
(g8
F1.0
tp1747
sS'30'
p1748
(g5
F1.0
tp1749
sS'28'
p1750
(g5
F1.0
tp1751
sS'36'
p1752
(dp1753
I0
(dp1754
g5
(g5
F1.0
tp1755
sg100
(g8
F1.0
tp1756
sssS'40'
p1757
(g8
F1.0
tp1758
sS'52'
p1759
(g8
F1.0
tp1760
sS'38'
p1761
(dp1762
I0
(dp1763
g217
(g5
F1.0
tp1764
sg100
(g8
F1.0
tp1765
sssS'26'
p1766
(g8
F1.0
tp1767
sS'65'
p1768
(g8
F1.0
tp1769
sS'41'
p1770
(g5
F1.0
tp1771
sS'29'
p1772
(g5
F1.0
tp1773
sssS'146'
p1774
(g5
F1.0
tp1775
sS'144'
p1776
(g5
F1.0
tp1777
sS'142'
p1778
(g8
F1.0
tp1779
sS'143'
p1780
(g5
F1.0
tp1781
sS'140'
p1782
(g5
F1.0
tp1783
sS'148'
p1784
(g5
F1.0
tp1785
sS'149'
p1786
(g5
F1.0
tp1787
sS'77'
p1788
(dp1789
I1
(dp1790
S'24'
p1791
(g8
F1.0
tp1792
sS'36'
p1793
(g8
F1.0
tp1794
sS'48'
p1795
(g5
F1.0
tp1796
sssS'76'
p1797
(g8
F1.0
tp1798
sS'75'
p1799
(dp1800
I1
(dp1801
S'18'
p1802
(g5
F1.0
tp1803
sS'12'
p1804
(g8
F1.0
tp1805
sS'48'
p1806
(g8
F1.0
tp1807
sS'30'
p1808
(g5
F1.0
tp1809
sssS'74'
p1810
(dp1811
I4
(dp1812
g8
(g8
F1.0
tp1813
sg5
(g5
F1.0
tp1814
sg1722
(g8
F1.0
tp1815
sssS'73'
p1816
(dp1817
I0
(dp1818
g8
(g5
F1.0
tp1819
sg5
(g8
F1.0
tp1820
sg100
(g8
F1.0
tp1821
sssS'72'
p1822
(dp1823
I0
(dp1824
g8
(g5
F1.0
tp1825
sg100
(g8
F1.0
tp1826
sssS'71'
p1827
(dp1828
I0
(dp1829
g8
(g5
F1.0
tp1830
sg5
(g8
F1.0
tp1831
sg100
(g5
F1.0
tp1832
sssS'70'
p1833
(dp1834
I0
(dp1835
g8
(g5
F1.0
tp1836
sg5
(g8
F1.0
tp1837
sssS'79'
p1838
(dp1839
I1
(dp1840
S'12'
p1841
(g5
F1.0
tp1842
sS'42'
p1843
(g8
F1.0
tp1844
sS'36'
p1845
(g5
F1.0
tp1846
sssS'78'
p1847
(dp1848
I0
(dp1849
g8
(g5
F1.0
tp1850
sg5
(g8
F1.0
tp1851
sg100
(g8
F1.0
tp1852
sssS'47'
p1853
(dp1854
I9
(dp1855
S'25'
p1856
(g5
F1.0
tp1857
sS'20'
p1858
(g8
F1.0
tp1859
sS'32'
p1860
(g8
F1.0
tp1861
sS'44'
p1862
(g8
F1.0
tp1863
sS'30'
p1864
(g8
F1.0
tp1865
sS'37'
p1866
(g8
F1.0
tp1867
sS'35'
p1868
(g8
F1.0
tp1869
sssssS'feature'
p1870
Ns.